----------------
IN: frame_dummy
0x00000184:  e3b00016  movs     r0, #0x16
0x00000188:  e28f1f4a  add      r1, pc, #0x128
0x0000018c:  ef123456  svc      #0x123456

Trace 0: 0x7fc8dc810100 [00000000/00000184/0x10200040] frame_dummy
----------------
IN: frame_dummy
0x00000190:  e59f0120  ldr      r0, [pc, #0x120]
0x00000194:  e5901004  ldr      r1, [r0, #4]
0x00000198:  e3510000  cmp      r1, #0
0x0000019c:  0a000001  beq      #0x1a8

Trace 0: 0x7fc8dc810240 [00000000/00000190/0x10200040] frame_dummy
----------------
IN: frame_dummy
0x000001a0:  e59f212c  ldr      r2, [pc, #0x12c]
0x000001a4:  e5821000  str      r1, [r2]
0x000001a8:  e5901000  ldr      r1, [r0]
0x000001ac:  e3510000  cmp      r1, #0
0x000001b0:  1a000001  bne      #0x1bc

Linking TBs 0x7fc8dc810240 [00000190] index 1 -> 0x7fc8dc810440 [000001a0]
Trace 0: 0x7fc8dc810440 [00000000/000001a0/0x10200040] frame_dummy
----------------
IN: frame_dummy
0x000001bc:  e5901008  ldr      r1, [r0, #8]
0x000001c0:  e590200c  ldr      r2, [r0, #0xc]
0x000001c4:  e59f30f0  ldr      r3, [pc, #0xf0]
0x000001c8:  e3510000  cmp      r1, #0
0x000001cc:  0a000000  beq      #0x1d4

Linking TBs 0x7fc8dc810440 [000001a0] index 0 -> 0x7fc8dc810680 [000001bc]
Trace 0: 0x7fc8dc810680 [00000000/000001bc/0x10200040] frame_dummy
----------------
IN: frame_dummy
0x000001d0:  e1a03001  mov      r3, r1
0x000001d4:  e1a0d003  mov      sp, r3
0x000001d8:  ebffffc5  bl       #0xf4

Linking TBs 0x7fc8dc810680 [000001bc] index 1 -> 0x7fc8dc8108c0 [000001d0]
Trace 0: 0x7fc8dc8108c0 [00000000/000001d0/0x10200040] frame_dummy
----------------
IN: frame_dummy
0x000000f4:  e10f4000  mrs      r4, apsr
0x000000f8:  e314000f  tst      r4, #0xf
0x000000fc:  0a00001c  beq      #0x174

Linking TBs 0x7fc8dc8108c0 [000001d0] index 0 -> 0x7fc8dc810a00 [000000f4]
Trace 0: 0x7fc8dc810a00 [00000000/000000f4/0x10200040] frame_dummy
----------------
IN: frame_dummy
0x00000100:  e1a0300d  mov      r3, sp
0x00000104:  e3a010d1  mov      r1, #0xd1
0x00000108:  e121f001  msr      cpsr_c, r1

Linking TBs 0x7fc8dc810a00 [000000f4] index 1 -> 0x7fc8dc810b80 [00000100]
Trace 0: 0x7fc8dc810b80 [00000000/00000100/0x10200040] frame_dummy
----------------
IN: frame_dummy
0x0000010c:  e1a0d003  mov      sp, r3
0x00000110:  e24daa01  sub      sl, sp, #0x1000
0x00000114:  e1a0300a  mov      r3, sl
0x00000118:  e3a010d7  mov      r1, #0xd7
0x0000011c:  e121f001  msr      cpsr_c, r1

Trace 0: 0x7fc8dc810cc0 [00000000/0000010c/0x10200040] frame_dummy
----------------
IN: frame_dummy
0x00000120:  e1a0d003  mov      sp, r3
0x00000124:  e2433a01  sub      r3, r3, #0x1000
0x00000128:  e3a010db  mov      r1, #0xdb
0x0000012c:  e121f001  msr      cpsr_c, r1

Trace 0: 0x7fc8dc810e00 [00000000/00000120/0x10200040] frame_dummy
----------------
IN: frame_dummy
0x00000130:  e1a0d003  mov      sp, r3
0x00000134:  e2433a01  sub      r3, r3, #0x1000
0x00000138:  e3a010d2  mov      r1, #0xd2
0x0000013c:  e121f001  msr      cpsr_c, r1

Trace 0: 0x7fc8dc810f40 [00000000/00000130/0x10200040] frame_dummy
----------------
IN: frame_dummy
0x00000140:  e1a0d003  mov      sp, r3
0x00000144:  e2433a02  sub      r3, r3, #0x2000
0x00000148:  e3a010d3  mov      r1, #0xd3
0x0000014c:  e121f001  msr      cpsr_c, r1

Trace 0: 0x7fc8dc811080 [00000000/00000140/0x10200040] frame_dummy
----------------
IN: frame_dummy
0x00000150:  e1a0d003  mov      sp, r3
0x00000154:  e2433902  sub      r3, r3, #0x8000
0x00000158:  e3c330ff  bic      r3, r3, #0xff
0x0000015c:  e3c33cff  bic      r3, r3, #0xff00
0x00000160:  e3a010df  mov      r1, #0xdf
0x00000164:  e121f001  msr      cpsr_c, r1

Trace 0: 0x7fc8dc8111c0 [00000000/00000150/0x10200040] frame_dummy
----------------
IN: frame_dummy
0x00000168:  e1a0d003  mov      sp, r3
0x0000016c:  e38440c0  orr      r4, r4, #0xc0
0x00000170:  e121f004  msr      cpsr_c, r4

Trace 0: 0x7fc8dc811300 [00000000/00000168/0x10200040] frame_dummy
----------------
IN: frame_dummy
0x00000174:  e3520000  cmp      r2, #0
0x00000178:  0a000000  beq      #0x180

Trace 0: 0x7fc8dc811440 [00000000/00000174/0x10200040] frame_dummy
----------------
IN: frame_dummy
0x00000180:  e12fff1e  bx       lr

Linking TBs 0x7fc8dc811440 [00000174] index 0 -> 0x7fc8dc811580 [00000180]
Trace 0: 0x7fc8dc811580 [00000000/00000180/0x10200040] frame_dummy
----------------
IN: frame_dummy
0x000001dc:  e3b01000  movs     r1, #0
0x000001e0:  e1a0b001  mov      fp, r1
0x000001e4:  e1a07001  mov      r7, r1
0x000001e8:  e59f00d0  ldr      r0, [pc, #0xd0]
0x000001ec:  e59f20d0  ldr      r2, [pc, #0xd0]
0x000001f0:  e0522000  subs     r2, r2, r0
0x000001f4:  eb00062e  bl       #0x1ab4

Trace 0: 0x7fc8dc8116c0 [00000000/000001dc/0x10200040] frame_dummy
----------------
IN: memset
0x00001ab4:  e3100003  tst      r0, #3
0x00001ab8:  0a00003f  beq      #0x1bbc

Trace 0: 0x7fc8dc811900 [00000000/00001ab4/0x10200040] memset
----------------
IN: memset
0x00001bbc:  e1a03000  mov      r3, r0
0x00001bc0:  eaffffc9  b        #0x1aec

Linking TBs 0x7fc8dc811900 [00001ab4] index 0 -> 0x7fc8dc811a40 [00001bbc]
Trace 0: 0x7fc8dc811a40 [00000000/00001bbc/0x10200040] memset
----------------
IN: memset
0x00001aec:  e3520003  cmp      r2, #3
0x00001af0:  9a000027  bls      #0x1b94

Linking TBs 0x7fc8dc811a40 [00001bbc] index 0 -> 0x7fc8dc811b40 [00001aec]
Trace 0: 0x7fc8dc811b40 [00000000/00001aec/0x10200040] memset
----------------
IN: memset
0x00001af4:  e92d4030  push     {r4, r5, lr}
0x00001af8:  e201e0ff  and      lr, r1, #0xff
0x00001afc:  e18ee40e  orr      lr, lr, lr, lsl #8
0x00001b00:  e352000f  cmp      r2, #0xf
0x00001b04:  e18ee80e  orr      lr, lr, lr, lsl #16
0x00001b08:  9a00002d  bls      #0x1bc4

Linking TBs 0x7fc8dc811b40 [00001aec] index 1 -> 0x7fc8dc811cc0 [00001af4]
Trace 0: 0x7fc8dc811cc0 [00000000/00001af4/0x10200040] memset
----------------
IN: memset
0x00001b0c:  e2424010  sub      r4, r2, #0x10
0x00001b10:  e1a04224  lsr      r4, r4, #4
0x00001b14:  e2835020  add      r5, r3, #0x20
0x00001b18:  e0855204  add      r5, r5, r4, lsl #4
0x00001b1c:  e283c010  add      ip, r3, #0x10
0x00001b20:  e50ce010  str      lr, [ip, #-0x10]
0x00001b24:  e50ce00c  str      lr, [ip, #-0xc]
0x00001b28:  e50ce008  str      lr, [ip, #-8]
0x00001b2c:  e50ce004  str      lr, [ip, #-4]
0x00001b30:  e28cc010  add      ip, ip, #0x10
0x00001b34:  e15c0005  cmp      ip, r5
0x00001b38:  1afffff8  bne      #0x1b20

Linking TBs 0x7fc8dc811cc0 [00001af4] index 1 -> 0x7fc8dc811f80 [00001b0c]
Trace 0: 0x7fc8dc811f80 [00000000/00001b0c/0x10200040] memset
----------------
IN: memset
0x00001b20:  e50ce010  str      lr, [ip, #-0x10]
0x00001b24:  e50ce00c  str      lr, [ip, #-0xc]
0x00001b28:  e50ce008  str      lr, [ip, #-8]
0x00001b2c:  e50ce004  str      lr, [ip, #-4]
0x00001b30:  e28cc010  add      ip, ip, #0x10
0x00001b34:  e15c0005  cmp      ip, r5
0x00001b38:  1afffff8  bne      #0x1b20

Linking TBs 0x7fc8dc811f80 [00001b0c] index 0 -> 0x7fc8dc812280 [00001b20]
Trace 0: 0x7fc8dc812280 [00000000/00001b20/0x10200040] memset
Linking TBs 0x7fc8dc812280 [00001b20] index 0 -> 0x7fc8dc812280 [00001b20]
Trace 0: 0x7fc8dc812280 [00000000/00001b20/0x10200040] memset
----------------
IN: memset
0x00001b3c:  e284c001  add      ip, r4, #1
0x00001b40:  e312000c  tst      r2, #0xc
0x00001b44:  e083c20c  add      ip, r3, ip, lsl #4
0x00001b48:  e202200f  and      r2, r2, #0xf
0x00001b4c:  0a000018  beq      #0x1bb4

Linking TBs 0x7fc8dc812280 [00001b20] index 1 -> 0x7fc8dc812540 [00001b3c]
Trace 0: 0x7fc8dc812540 [00000000/00001b3c/0x10200040] memset
----------------
IN: memset
0x00001b50:  e2423004  sub      r3, r2, #4
0x00001b54:  e3c33003  bic      r3, r3, #3
0x00001b58:  e2833004  add      r3, r3, #4
0x00001b5c:  e08c3003  add      r3, ip, r3
0x00001b60:  e48ce004  str      lr, [ip], #4
0x00001b64:  e153000c  cmp      r3, ip
0x00001b68:  1afffffc  bne      #0x1b60

Linking TBs 0x7fc8dc812540 [00001b3c] index 1 -> 0x7fc8dc8126c0 [00001b50]
Trace 0: 0x7fc8dc8126c0 [00000000/00001b50/0x10200040] memset
----------------
IN: memset
0x00001b6c:  e2022003  and      r2, r2, #3
0x00001b70:  e3520000  cmp      r2, #0
0x00001b74:  0a000004  beq      #0x1b8c

Linking TBs 0x7fc8dc8126c0 [00001b50] index 1 -> 0x7fc8dc8128c0 [00001b6c]
Trace 0: 0x7fc8dc8128c0 [00000000/00001b6c/0x10200040] memset
----------------
IN: memset
0x00001b8c:  e8bd4030  pop      {r4, r5, lr}
0x00001b90:  e12fff1e  bx       lr

Linking TBs 0x7fc8dc8128c0 [00001b6c] index 0 -> 0x7fc8dc812a40 [00001b8c]
Trace 0: 0x7fc8dc812a40 [00000000/00001b8c/0x10200040] memset
----------------
IN: frame_dummy
0x000001f8:  eb002d34  bl       #0xb6d0

Trace 0: 0x7fc8dc812c80 [00000000/000001f8/0x10200040] frame_dummy
----------------
IN: initialise_monitor_handles
0x0000b6d0:  e92d47f0  push     {r4, r5, r6, r7, r8, sb, sl, lr}
0x0000b6d4:  e3a03003  mov      r3, #3
0x0000b6d8:  e3a04000  mov      r4, #0
0x0000b6dc:  e59f7158  ldr      r7, [pc, #0x158]
0x0000b6e0:  e24dd010  sub      sp, sp, #0x10
0x0000b6e4:  e58d7004  str      r7, [sp, #4]
0x0000b6e8:  e3a05001  mov      r5, #1
0x0000b6ec:  e58d300c  str      r3, [sp, #0xc]
0x0000b6f0:  e28d6004  add      r6, sp, #4
0x0000b6f4:  e58d4008  str      r4, [sp, #8]
0x0000b6f8:  e1a00005  mov      r0, r5
0x0000b6fc:  e1a01006  mov      r1, r6
0x0000b700:  ef123456  svc      #0x123456

Trace 0: 0x7fc8dc812d80 [00000000/0000b6d0/0x10200040] initialise_monitor_handles
----------------
IN: initialise_monitor_handles
0x0000b704:  e1a05000  mov      r5, r0
0x0000b708:  e3e02000  mvn      r2, #0
0x0000b70c:  e1a03004  mov      r3, r4
0x0000b710:  e59f4128  ldr      r4, [pc, #0x128]
0x0000b714:  e58450a4  str      r5, [r4, #0xa4]
0x0000b718:  e7842183  str      r2, [r4, r3, lsl #3]
0x0000b71c:  e2833001  add      r3, r3, #1
0x0000b720:  e3530014  cmp      r3, #0x14
0x0000b724:  1afffffb  bne      #0xb718

Trace 0: 0x7fc8dc8132c0 [00000000/0000b704/0x10200040] initialise_monitor_handles
----------------
IN: initialise_monitor_handles
0x0000b718:  e7842183  str      r2, [r4, r3, lsl #3]
0x0000b71c:  e2833001  add      r3, r3, #1
0x0000b720:  e3530014  cmp      r3, #0x14
0x0000b724:  1afffffb  bne      #0xb718

Linking TBs 0x7fc8dc8132c0 [0000b704] index 0 -> 0x7fc8dc813580 [0000b718]
Trace 0: 0x7fc8dc813580 [00000000/0000b718/0x10200040] initialise_monitor_handles
Linking TBs 0x7fc8dc813580 [0000b718] index 0 -> 0x7fc8dc813580 [0000b718]
Trace 0: 0x7fc8dc813580 [00000000/0000b718/0x10200040] initialise_monitor_handles
----------------
IN: initialise_monitor_handles
0x0000b728:  e59f5114  ldr      r5, [pc, #0x114]
0x0000b72c:  e5953008  ldr      r3, [r5, #8]
0x0000b730:  e3530000  cmp      r3, #0
0x0000b734:  ba000035  blt      #0xb810

Linking TBs 0x7fc8dc813580 [0000b718] index 1 -> 0x7fc8dc813780 [0000b728]
Trace 0: 0x7fc8dc813780 [00000000/0000b728/0x10200040] initialise_monitor_handles
----------------
IN: initialise_monitor_handles
0x0000b810:  ebffff82  bl       #0xb620

Trace 0: 0x7fc8dc813980 [00000000/0000b810/0x10200040] initialise_monitor_handles
----------------
IN: initialise_semihosting_exts
0x0000b620:  e3a03001  mov      r3, #1
0x0000b624:  e3a0c000  mov      ip, #0
0x0000b628:  e92d4010  push     {r4, lr}
0x0000b62c:  e59f4038  ldr      r4, [pc, #0x38]
0x0000b630:  e24dd008  sub      sp, sp, #8
0x0000b634:  e1a02003  mov      r2, r3
0x0000b638:  e1a0100c  mov      r1, ip
0x0000b63c:  e28d0004  add      r0, sp, #4
0x0000b640:  e5843008  str      r3, [r4, #8]
0x0000b644:  e584c004  str      ip, [r4, #4]
0x0000b648:  ebffffa1  bl       #0xb4d4

Trace 0: 0x7fc8dc813a80 [00000000/0000b620/0x10200040] initialise_semihosting_exts
----------------
IN: _get_semihosting_exts
0x0000b4d4:  e92d43f0  push     {r4, r5, r6, r7, r8, sb, lr}
0x0000b4d8:  e1a07000  mov      r7, r0
0x0000b4dc:  e24dd00c  sub      sp, sp, #0xc
0x0000b4e0:  e1a08001  mov      r8, r1
0x0000b4e4:  e59f0130  ldr      r0, [pc, #0x130]
0x0000b4e8:  e3a01000  mov      r1, #0
0x0000b4ec:  e1a06002  mov      r6, r2
0x0000b4f0:  ebffffa2  bl       #0xb380

Linking TBs 0x7fc8dc813a80 [0000b620] index 0 -> 0x7fc8dc813d80 [0000b4d4]
Trace 0: 0x7fc8dc813d80 [00000000/0000b4d4/0x10200040] _get_semihosting_exts
----------------
IN: _swiopen
0x0000b380:  e92d43f0  push     {r4, r5, r6, r7, r8, sb, lr}
0x0000b384:  e1a09000  mov      sb, r0
0x0000b388:  e24dd05c  sub      sp, sp, #0x5c
0x0000b38c:  e1a07001  mov      r7, r1
0x0000b390:  e3a04000  mov      r4, #0
0x0000b394:  e59f6114  ldr      r6, [pc, #0x114]
0x0000b398:  ea000002  b        #0xb3a8

Trace 0: 0x7fc8dc814180 [00000000/0000b380/0x10200040] _swiopen
----------------
IN: _swiopen
0x0000b3a8:  e7965184  ldr      r5, [r6, r4, lsl #3]
0x0000b3ac:  e3750001  cmn      r5, #1
0x0000b3b0:  1afffff9  bne      #0xb39c

Linking TBs 0x7fc8dc814180 [0000b380] index 0 -> 0x7fc8dc814540 [0000b3a8]
Trace 0: 0x7fc8dc814540 [00000000/0000b3a8/0x10200040] _swiopen
----------------
IN: _swiopen
0x0000b3b4:  e2073c0a  and      r3, r7, #0xa00
0x0000b3b8:  e3530c0a  cmp      r3, #0xa00
0x0000b3bc:  e1a0800d  mov      r8, sp
0x0000b3c0:  0a00002b  beq      #0xb474

Linking TBs 0x7fc8dc814540 [0000b3a8] index 1 -> 0x7fc8dc814700 [0000b3b4]
Trace 0: 0x7fc8dc814700 [00000000/0000b3b4/0x10200040] _swiopen
----------------
IN: _swiopen
0x0000b3c4:  e59f30e8  ldr      r3, [pc, #0xe8]
0x0000b3c8:  e1a05827  lsr      r5, r7, #0x10
0x0000b3cc:  e2055001  and      r5, r5, #1
0x0000b3d0:  e3170002  tst      r7, #2
0x0000b3d4:  13855002  orrne    r5, r5, #2
0x0000b3d8:  e1170003  tst      r7, r3
0x0000b3dc:  13855004  orrne    r5, r5, #4
0x0000b3e0:  e3170008  tst      r7, #8
0x0000b3e4:  13c55004  bicne    r5, r5, #4
0x0000b3e8:  e1a00009  mov      r0, sb
0x0000b3ec:  13855008  orrne    r5, r5, #8
0x0000b3f0:  e58d9000  str      sb, [sp]
0x0000b3f4:  ebffda41  bl       #0x1d00

Linking TBs 0x7fc8dc814700 [0000b3b4] index 1 -> 0x7fc8dc814880 [0000b3c4]
Trace 0: 0x7fc8dc814880 [00000000/0000b3c4/0x10200040] _swiopen
----------------
IN: strlen
0x00001d00:  e3c01003  bic      r1, r0, #3
0x00001d04:  e2100003  ands     r0, r0, #3
0x00001d08:  e2600000  rsb      r0, r0, #0
0x00001d0c:  e4913004  ldr      r3, [r1], #4
0x00001d10:  e280c004  add      ip, r0, #4
0x00001d14:  e1a0c18c  lsl      ip, ip, #3
0x00001d18:  e3e02000  mvn      r2, #0
0x00001d1c:  11833c32  orrne    r3, r3, r2, lsr ip
0x00001d20:  e3a0c001  mov      ip, #1
0x00001d24:  e18cc40c  orr      ip, ip, ip, lsl #8
0x00001d28:  e18cc80c  orr      ip, ip, ip, lsl #16
0x00001d2c:  e043200c  sub      r2, r3, ip
0x00001d30:  e1c22003  bic      r2, r2, r3
0x00001d34:  e012238c  ands     r2, r2, ip, lsl #7
0x00001d38:  04913004  ldreq    r3, [r1], #4
0x00001d3c:  02800004  addeq    r0, r0, #4
0x00001d40:  0afffff9  beq      #0x1d2c

Trace 0: 0x7fc8dc814b00 [00000000/00001d00/0x10200040] strlen
----------------
IN: strlen
0x00001d2c:  e043200c  sub      r2, r3, ip
0x00001d30:  e1c22003  bic      r2, r2, r3
0x00001d34:  e012238c  ands     r2, r2, ip, lsl #7
0x00001d38:  04913004  ldreq    r3, [r1], #4
0x00001d3c:  02800004  addeq    r0, r0, #4
0x00001d40:  0afffff9  beq      #0x1d2c

Linking TBs 0x7fc8dc814b00 [00001d00] index 0 -> 0x7fc8dc814e00 [00001d2c]
Trace 0: 0x7fc8dc814e00 [00000000/00001d2c/0x10200040] strlen
Linking TBs 0x7fc8dc814e00 [00001d2c] index 0 -> 0x7fc8dc814e00 [00001d2c]
Trace 0: 0x7fc8dc814e00 [00000000/00001d2c/0x10200040] strlen
----------------
IN: strlen
0x00001d44:  e31300ff  tst      r3, #0xff
0x00001d48:  12800001  addne    r0, r0, #1
0x00001d4c:  13130cff  tstne    r3, #0xff00
0x00001d50:  12800001  addne    r0, r0, #1
0x00001d54:  131308ff  tstne    r3, #0xff0000
0x00001d58:  12800001  addne    r0, r0, #1
0x00001d5c:  e12fff1e  bx       lr

Linking TBs 0x7fc8dc814e00 [00001d2c] index 1 -> 0x7fc8dc815000 [00001d44]
Trace 0: 0x7fc8dc815000 [00000000/00001d44/0x10200040] strlen
----------------
IN: _swiopen
0x0000b3f8:  e58d5004  str      r5, [sp, #4]
0x0000b3fc:  e58d0008  str      r0, [sp, #8]

Trace 0: 0x7fc8dc815200 [00000000/0000b3f8/0x10200040] _swiopen
----------------
IN: _swiopen
0x0000b400:  e3a05001  mov      r5, #1
0x0000b404:  e1a00005  mov      r0, r5
0x0000b408:  e1a01008  mov      r1, r8
0x0000b40c:  ef123456  svc      #0x123456

Trace 0: 0x7fc8dc8153c0 [00000000/0000b400/0x10200040] _swiopen
----------------
IN: _swiopen
0x0000b410:  e1a05000  mov      r5, r0
0x0000b414:  e3550000  cmp      r5, #0
0x0000b418:  ba000007  blt      #0xb43c

Trace 0: 0x7fc8dc815500 [00000000/0000b410/0x10200040] _swiopen
----------------
IN: _swiopen
0x0000b41c:  e3a02000  mov      r2, #0
0x0000b420:  e0863184  add      r3, r6, r4, lsl #3
0x0000b424:  e7865184  str      r5, [r6, r4, lsl #3]
0x0000b428:  e5832004  str      r2, [r3, #4]
0x0000b42c:  e1a00004  mov      r0, r4
0x0000b430:  e28dd05c  add      sp, sp, #0x5c
0x0000b434:  e8bd43f0  pop      {r4, r5, r6, r7, r8, sb, lr}
0x0000b438:  e12fff1e  bx       lr

Linking TBs 0x7fc8dc815500 [0000b410] index 1 -> 0x7fc8dc815680 [0000b41c]
Trace 0: 0x7fc8dc815680 [00000000/0000b41c/0x10200040] _swiopen
----------------
IN: _get_semihosting_exts
0x0000b4f4:  e1a05000  mov      r5, r0
0x0000b4f8:  e1a02006  mov      r2, r6
0x0000b4fc:  e1a00007  mov      r0, r7
0x0000b500:  e3a01000  mov      r1, #0
0x0000b504:  ebffd96a  bl       #0x1ab4

Trace 0: 0x7fc8dc815ac0 [00000000/0000b4f4/0x10200040] _get_semihosting_exts
Chain 0: 0x7fc8dc811900 [00000000/00001ab4/0x10200040] memset
----------------
IN: memset
0x00001b94:  e3520000  cmp      r2, #0
0x00001b98:  012fff1e  bxeq     lr

Linking TBs 0x7fc8dc811b40 [00001aec] index 0 -> 0x7fc8dc815c00 [00001b94]
Trace 0: 0x7fc8dc815c00 [00000000/00001b94/0x10200040] memset
----------------
IN: memset
0x00001b9c:  e20110ff  and      r1, r1, #0xff
0x00001ba0:  e0832002  add      r2, r3, r2
0x00001ba4:  e4c31001  strb     r1, [r3], #1
0x00001ba8:  e1520003  cmp      r2, r3
0x00001bac:  1afffffc  bne      #0x1ba4

Linking TBs 0x7fc8dc815c00 [00001b94] index 1 -> 0x7fc8dc815d80 [00001b9c]
Trace 0: 0x7fc8dc815d80 [00000000/00001b9c/0x10200040] memset
----------------
IN: memset
0x00001bb0:  e12fff1e  bx       lr

Linking TBs 0x7fc8dc815d80 [00001b9c] index 1 -> 0x7fc8dc815f80 [00001bb0]
Trace 0: 0x7fc8dc815f80 [00000000/00001bb0/0x10200040] memset
----------------
IN: _get_semihosting_exts
0x0000b508:  e3750001  cmn      r5, #1
0x0000b50c:  0a00003a  beq      #0xb5fc

Trace 0: 0x7fc8dc8160c0 [00000000/0000b508/0x10200040] _get_semihosting_exts
----------------
IN: _get_semihosting_exts
0x0000b510:  e1a00005  mov      r0, r5
0x0000b514:  ebfffe0c  bl       #0xad4c

Linking TBs 0x7fc8dc8160c0 [0000b508] index 1 -> 0x7fc8dc816240 [0000b510]
Trace 0: 0x7fc8dc816240 [00000000/0000b510/0x10200040] _get_semihosting_exts
----------------
IN: findslot
0x0000ad4c:  e59f305c  ldr      r3, [pc, #0x5c]
0x0000ad50:  e5933000  ldr      r3, [r3]
0x0000ad54:  e3530000  cmp      r3, #0
0x0000ad58:  e92d4010  push     {r4, lr}
0x0000ad5c:  e1a04000  mov      r4, r0
0x0000ad60:  0a000002  beq      #0xad70

Trace 0: 0x7fc8dc816380 [00000000/0000ad4c/0x10200040] findslot
----------------
IN: findslot
0x0000ad64:  e5932038  ldr      r2, [r3, #0x38]
0x0000ad68:  e3520000  cmp      r2, #0
0x0000ad6c:  0a000008  beq      #0xad94

Linking TBs 0x7fc8dc816380 [0000ad4c] index 1 -> 0x7fc8dc816640 [0000ad64]
Trace 0: 0x7fc8dc816640 [00000000/0000ad64/0x10200040] findslot
----------------
IN: findslot
0x0000ad94:  e1a00003  mov      r0, r3
0x0000ad98:  ebffec52  bl       #0x5ee8

Linking TBs 0x7fc8dc816640 [0000ad64] index 0 -> 0x7fc8dc816800 [0000ad94]
Trace 0: 0x7fc8dc816800 [00000000/0000ad94/0x10200040] findslot
----------------
IN: __sinit
0x00005ee8:  e5903038  ldr      r3, [r0, #0x38]
0x00005eec:  e3530000  cmp      r3, #0
0x00005ef0:  112fff1e  bxne     lr

Trace 0: 0x7fc8dc816940 [00000000/00005ee8/0x10200040] __sinit
----------------
IN: __sinit
0x00005ef4:  eaffff4d  b        #0x5c30

Linking TBs 0x7fc8dc816940 [00005ee8] index 1 -> 0x7fc8dc816b00 [00005ef4]
Trace 0: 0x7fc8dc816b00 [00000000/00005ef4/0x10200040] __sinit
----------------
IN: __sinit.part.0
0x00005c30:  e92d4ff8  push     {r3, r4, r5, r6, r7, r8, sb, sl, fp, lr}
0x00005c34:  e1a07000  mov      r7, r0
0x00005c38:  e3a04000  mov      r4, #0
0x00005c3c:  e3a03004  mov      r3, #4
0x00005c40:  e3a01003  mov      r1, #3
0x00005c44:  e5975004  ldr      r5, [r7, #4]
0x00005c48:  e59f010c  ldr      r0, [pc, #0x10c]
0x00005c4c:  e2872fbb  add      r2, r7, #0x2ec
0x00005c50:  e587003c  str      r0, [r7, #0x3c]
0x00005c54:  e58712e4  str      r1, [r7, #0x2e4]
0x00005c58:  e58722e8  str      r2, [r7, #0x2e8]
0x00005c5c:  e58742e0  str      r4, [r7, #0x2e0]
0x00005c60:  e1a01004  mov      r1, r4
0x00005c64:  e5854064  str      r4, [r5, #0x64]
0x00005c68:  e5854000  str      r4, [r5]
0x00005c6c:  e5854004  str      r4, [r5, #4]
0x00005c70:  e5854008  str      r4, [r5, #8]
0x00005c74:  e5854010  str      r4, [r5, #0x10]
0x00005c78:  e5854014  str      r4, [r5, #0x14]
0x00005c7c:  e5854018  str      r4, [r5, #0x18]
0x00005c80:  e585300c  str      r3, [r5, #0xc]
0x00005c84:  e285005c  add      r0, r5, #0x5c
0x00005c88:  e3a02008  mov      r2, #8
0x00005c8c:  ebffef88  bl       #0x1ab4

Linking TBs 0x7fc8dc816b00 [00005ef4] index 0 -> 0x7fc8dc816c00 [00005c30]
Trace 0: 0x7fc8dc816c00 [00000000/00005c30/0x10200040] __sinit.part.0
Chain 0: 0x7fc8dc811900 [00000000/00001ab4/0x10200040] memset
----------------
IN: memset
0x00001bc4:  e1a0c003  mov      ip, r3
0x00001bc8:  eaffffe0  b        #0x1b50

Linking TBs 0x7fc8dc811cc0 [00001af4] index 0 -> 0x7fc8dc8174c0 [00001bc4]
Trace 0: 0x7fc8dc8174c0 [00000000/00001bc4/0x10200040] memset
Linking TBs 0x7fc8dc8174c0 [00001bc4] index 0 -> 0x7fc8dc8126c0 [00001b50]
Trace 0: 0x7fc8dc8126c0 [00000000/00001b50/0x10200040] memset
----------------
IN: memset
0x00001b60:  e48ce004  str      lr, [ip], #4
0x00001b64:  e153000c  cmp      r3, ip
0x00001b68:  1afffffc  bne      #0x1b60

Linking TBs 0x7fc8dc8126c0 [00001b50] index 0 -> 0x7fc8dc8175c0 [00001b60]
Trace 0: 0x7fc8dc8175c0 [00000000/00001b60/0x10200040] memset
Linking TBs 0x7fc8dc8175c0 [00001b60] index 1 -> 0x7fc8dc8128c0 [00001b6c]
Trace 0: 0x7fc8dc8128c0 [00000000/00001b6c/0x10200040] memset
----------------
IN: __sinit.part.0
0x00005c90:  e59fb0c8  ldr      fp, [pc, #0xc8]
0x00005c94:  e5976008  ldr      r6, [r7, #8]
0x00005c98:  e59fa0c4  ldr      sl, [pc, #0xc4]
0x00005c9c:  e59f90c4  ldr      sb, [pc, #0xc4]
0x00005ca0:  e59f80c4  ldr      r8, [pc, #0xc4]
0x00005ca4:  e59f30c4  ldr      r3, [pc, #0xc4]
0x00005ca8:  e585b020  str      fp, [r5, #0x20]
0x00005cac:  e585a024  str      sl, [r5, #0x24]
0x00005cb0:  e5859028  str      sb, [r5, #0x28]
0x00005cb4:  e585802c  str      r8, [r5, #0x2c]
0x00005cb8:  e585501c  str      r5, [r5, #0x1c]
0x00005cbc:  e1a01004  mov      r1, r4
0x00005cc0:  e586300c  str      r3, [r6, #0xc]
0x00005cc4:  e286005c  add      r0, r6, #0x5c
0x00005cc8:  e5864064  str      r4, [r6, #0x64]
0x00005ccc:  e5864000  str      r4, [r6]
0x00005cd0:  e5864004  str      r4, [r6, #4]
0x00005cd4:  e5864008  str      r4, [r6, #8]
0x00005cd8:  e5864010  str      r4, [r6, #0x10]
0x00005cdc:  e5864014  str      r4, [r6, #0x14]
0x00005ce0:  e5864018  str      r4, [r6, #0x18]
0x00005ce4:  e3a02008  mov      r2, #8
0x00005ce8:  ebffef71  bl       #0x1ab4

Trace 0: 0x7fc8dc817780 [00000000/00005c90/0x10200040] __sinit.part.0
Chain 0: 0x7fc8dc811900 [00000000/00001ab4/0x10200040] memset
----------------
IN: __sinit.part.0
0x00005cec:  e597500c  ldr      r5, [r7, #0xc]
0x00005cf0:  e59f307c  ldr      r3, [pc, #0x7c]
0x00005cf4:  e586601c  str      r6, [r6, #0x1c]
0x00005cf8:  e586b020  str      fp, [r6, #0x20]
0x00005cfc:  e586a024  str      sl, [r6, #0x24]
0x00005d00:  e5869028  str      sb, [r6, #0x28]
0x00005d04:  e586802c  str      r8, [r6, #0x2c]
0x00005d08:  e1a01004  mov      r1, r4
0x00005d0c:  e585300c  str      r3, [r5, #0xc]
0x00005d10:  e5854064  str      r4, [r5, #0x64]
0x00005d14:  e5854000  str      r4, [r5]
0x00005d18:  e5854004  str      r4, [r5, #4]
0x00005d1c:  e5854008  str      r4, [r5, #8]
0x00005d20:  e5854010  str      r4, [r5, #0x10]
0x00005d24:  e5854014  str      r4, [r5, #0x14]
0x00005d28:  e5854018  str      r4, [r5, #0x18]
0x00005d2c:  e285005c  add      r0, r5, #0x5c
0x00005d30:  e3a02008  mov      r2, #8
0x00005d34:  ebffef5e  bl       #0x1ab4

Trace 0: 0x7fc8dc817ec0 [00000000/00005cec/0x10200040] __sinit.part.0
Chain 0: 0x7fc8dc811900 [00000000/00001ab4/0x10200040] memset
----------------
IN: __sinit.part.0
0x00005d38:  e3a03001  mov      r3, #1
0x00005d3c:  e585501c  str      r5, [r5, #0x1c]
0x00005d40:  e585b020  str      fp, [r5, #0x20]
0x00005d44:  e585a024  str      sl, [r5, #0x24]
0x00005d48:  e5859028  str      sb, [r5, #0x28]
0x00005d4c:  e585802c  str      r8, [r5, #0x2c]
0x00005d50:  e5873038  str      r3, [r7, #0x38]
0x00005d54:  e8bd4ff8  pop      {r3, r4, r5, r6, r7, r8, sb, sl, fp, lr}
0x00005d58:  e12fff1e  bx       lr

Trace 0: 0x7fc8dc8184c0 [00000000/00005d38/0x10200040] __sinit.part.0
----------------
IN: findslot
0x0000ad9c:  e3540013  cmp      r4, #0x13
0x0000ada0:  9afffff4  bls      #0xad78

Trace 0: 0x7fc8dc818b00 [00000000/0000ad9c/0x10200040] findslot
----------------
IN: findslot
0x0000ad78:  e59f0034  ldr      r0, [pc, #0x34]
0x0000ad7c:  e7903184  ldr      r3, [r0, r4, lsl #3]
0x0000ad80:  e3730001  cmn      r3, #1
0x0000ad84:  0a000006  beq      #0xada4

Linking TBs 0x7fc8dc818b00 [0000ad9c] index 0 -> 0x7fc8dc818c80 [0000ad78]
Trace 0: 0x7fc8dc818c80 [00000000/0000ad78/0x10200040] findslot
----------------
IN: findslot
0x0000ad88:  e0800184  add      r0, r0, r4, lsl #3
0x0000ad8c:  e8bd4010  pop      {r4, lr}
0x0000ad90:  e12fff1e  bx       lr

Linking TBs 0x7fc8dc818c80 [0000ad78] index 1 -> 0x7fc8dc818e80 [0000ad88]
Trace 0: 0x7fc8dc818e80 [00000000/0000ad88/0x10200040] findslot
----------------
IN: _get_semihosting_exts
0x0000b518:  e3a0400c  mov      r4, #0xc
0x0000b51c:  e1a09000  mov      sb, r0
0x0000b520:  e1a00004  mov      r0, r4
0x0000b524:  e1a01009  mov      r1, sb
0x0000b528:  ef123456  svc      #0x123456

Trace 0: 0x7fc8dc819080 [00000000/0000b518/0x10200040] _get_semihosting_exts
----------------
IN: _get_semihosting_exts
0x0000b52c:  e1a04000  mov      r4, r0
0x0000b530:  e3740001  cmn      r4, #1
0x0000b534:  0a000032  beq      #0xb604

Trace 0: 0x7fc8dc8191c0 [00000000/0000b52c/0x10200040] _get_semihosting_exts
----------------
IN: _get_semihosting_exts
0x0000b538:  e3540003  cmp      r4, #3
0x0000b53c:  da000027  ble      #0xb5e0

Linking TBs 0x7fc8dc8191c0 [0000b52c] index 1 -> 0x7fc8dc819340 [0000b538]
Trace 0: 0x7fc8dc819340 [00000000/0000b538/0x10200040] _get_semihosting_exts
----------------
IN: _get_semihosting_exts
0x0000b540:  e2440003  sub      r0, r4, #3
0x0000b544:  e1500006  cmp      r0, r6
0x0000b548:  da000024  ble      #0xb5e0

Linking TBs 0x7fc8dc819340 [0000b538] index 1 -> 0x7fc8dc8194c0 [0000b540]
Trace 0: 0x7fc8dc8194c0 [00000000/0000b540/0x10200040] _get_semihosting_exts
----------------
IN: _get_semihosting_exts
0x0000b54c:  e3a02004  mov      r2, #4
0x0000b550:  e1a00005  mov      r0, r5
0x0000b554:  e08d1002  add      r1, sp, r2
0x0000b558:  ebfffe34  bl       #0xae30

Linking TBs 0x7fc8dc8194c0 [0000b540] index 1 -> 0x7fc8dc819640 [0000b54c]
Trace 0: 0x7fc8dc819640 [00000000/0000b54c/0x10200040] _get_semihosting_exts
----------------
IN: _read
0x0000ae30:  e92d40f0  push     {r4, r5, r6, r7, lr}
0x0000ae34:  e24dd014  sub      sp, sp, #0x14
0x0000ae38:  e1a07001  mov      r7, r1
0x0000ae3c:  e1a05002  mov      r5, r2
0x0000ae40:  ebffffc1  bl       #0xad4c

Trace 0: 0x7fc8dc819780 [00000000/0000ae30/0x10200040] _read
Linking TBs 0x7fc8dc819780 [0000ae30] index 0 -> 0x7fc8dc816380 [0000ad4c]
Trace 0: 0x7fc8dc816380 [00000000/0000ad4c/0x10200040] findslot
----------------
IN: findslot
0x0000ad70:  e3540013  cmp      r4, #0x13
0x0000ad74:  8a00000a  bhi      #0xada4

Linking TBs 0x7fc8dc816640 [0000ad64] index 1 -> 0x7fc8dc819a40 [0000ad70]
Trace 0: 0x7fc8dc819a40 [00000000/0000ad70/0x10200040] findslot
Linking TBs 0x7fc8dc819a40 [0000ad70] index 1 -> 0x7fc8dc818c80 [0000ad78]
Trace 0: 0x7fc8dc818c80 [00000000/0000ad78/0x10200040] findslot
----------------
IN: _read
0x0000ae44:  e2506000  subs     r6, r0, #0
0x0000ae48:  0a000018  beq      #0xaeb0

Trace 0: 0x7fc8dc819bc0 [00000000/0000ae44/0x10200040] _read
----------------
IN: _read
0x0000ae4c:  e5963000  ldr      r3, [r6]
0x0000ae50:  e3a04006  mov      r4, #6
0x0000ae54:  e98d0088  stmib    sp, {r3, r7}
0x0000ae58:  e58d500c  str      r5, [sp, #0xc]
0x0000ae5c:  e28d7004  add      r7, sp, #4
0x0000ae60:  e1a00004  mov      r0, r4
0x0000ae64:  e1a01007  mov      r1, r7
0x0000ae68:  ef123456  svc      #0x123456

Linking TBs 0x7fc8dc819bc0 [0000ae44] index 1 -> 0x7fc8dc819d40 [0000ae4c]
Trace 0: 0x7fc8dc819d40 [00000000/0000ae4c/0x10200040] _read
----------------
IN: _read
0x0000ae6c:  e1a04000  mov      r4, r0
0x0000ae70:  e3740001  cmn      r4, #1
0x0000ae74:  0a000008  beq      #0xae9c

Trace 0: 0x7fc8dc819fc0 [00000000/0000ae6c/0x10200040] _read
----------------
IN: _read
0x0000ae78:  e5962004  ldr      r2, [r6, #4]
0x0000ae7c:  e0455004  sub      r5, r5, r4
0x0000ae80:  e1a04005  mov      r4, r5
0x0000ae84:  e0825005  add      r5, r2, r5
0x0000ae88:  e5865004  str      r5, [r6, #4]
0x0000ae8c:  e1a00004  mov      r0, r4
0x0000ae90:  e28dd014  add      sp, sp, #0x14
0x0000ae94:  e8bd40f0  pop      {r4, r5, r6, r7, lr}
0x0000ae98:  e12fff1e  bx       lr

Linking TBs 0x7fc8dc819fc0 [0000ae6c] index 1 -> 0x7fc8dc81a140 [0000ae78]
Trace 0: 0x7fc8dc81a140 [00000000/0000ae78/0x10200040] _read
----------------
IN: _get_semihosting_exts
0x0000b55c:  e3500003  cmp      r0, #3
0x0000b560:  da00001e  ble      #0xb5e0

Trace 0: 0x7fc8dc81a500 [00000000/0000b55c/0x10200040] _get_semihosting_exts
----------------
IN: _get_semihosting_exts
0x0000b564:  e5dd3004  ldrb     r3, [sp, #4]
0x0000b568:  e3530053  cmp      r3, #0x53
0x0000b56c:  1a00001b  bne      #0xb5e0

Linking TBs 0x7fc8dc81a500 [0000b55c] index 1 -> 0x7fc8dc81a680 [0000b564]
Trace 0: 0x7fc8dc81a680 [00000000/0000b564/0x10200040] _get_semihosting_exts
----------------
IN: _get_semihosting_exts
0x0000b570:  e5dd3005  ldrb     r3, [sp, #5]
0x0000b574:  e3530048  cmp      r3, #0x48
0x0000b578:  1a000018  bne      #0xb5e0

Linking TBs 0x7fc8dc81a680 [0000b564] index 1 -> 0x7fc8dc81a840 [0000b570]
Trace 0: 0x7fc8dc81a840 [00000000/0000b570/0x10200040] _get_semihosting_exts
----------------
IN: _get_semihosting_exts
0x0000b57c:  e5dd3006  ldrb     r3, [sp, #6]
0x0000b580:  e3530046  cmp      r3, #0x46
0x0000b584:  1a000015  bne      #0xb5e0

Linking TBs 0x7fc8dc81a840 [0000b570] index 1 -> 0x7fc8dc81aa00 [0000b57c]
Trace 0: 0x7fc8dc81aa00 [00000000/0000b57c/0x10200040] _get_semihosting_exts
----------------
IN: _get_semihosting_exts
0x0000b588:  e5dd3007  ldrb     r3, [sp, #7]
0x0000b58c:  e3530042  cmp      r3, #0x42
0x0000b590:  1a000012  bne      #0xb5e0

Linking TBs 0x7fc8dc81aa00 [0000b57c] index 1 -> 0x7fc8dc81abc0 [0000b588]
Trace 0: 0x7fc8dc81abc0 [00000000/0000b588/0x10200040] _get_semihosting_exts
----------------
IN: _get_semihosting_exts
0x0000b594:  e1a01008  mov      r1, r8
0x0000b598:  e3a02001  mov      r2, #1
0x0000b59c:  e1a00005  mov      r0, r5
0x0000b5a0:  ebfffe47  bl       #0xaec4

Linking TBs 0x7fc8dc81abc0 [0000b588] index 1 -> 0x7fc8dc81ad80 [0000b594]
Trace 0: 0x7fc8dc81ad80 [00000000/0000b594/0x10200040] _get_semihosting_exts
----------------
IN: _swilseek
0x0000aec4:  e92d43f0  push     {r4, r5, r6, r7, r8, sb, lr}
0x0000aec8:  e24dd00c  sub      sp, sp, #0xc
0x0000aecc:  e1a09001  mov      sb, r1
0x0000aed0:  e1a04002  mov      r4, r2
0x0000aed4:  ebffff9c  bl       #0xad4c

Trace 0: 0x7fc8dc81aec0 [00000000/0000aec4/0x10200040] _swilseek
Linking TBs 0x7fc8dc81aec0 [0000aec4] index 0 -> 0x7fc8dc816380 [0000ad4c]
Trace 0: 0x7fc8dc816380 [00000000/0000ad4c/0x10200040] findslot
----------------
IN: _swilseek
0x0000aed8:  e2506000  subs     r6, r0, #0
0x0000aedc:  0a000036  beq      #0xafbc

Trace 0: 0x7fc8dc81b240 [00000000/0000aed8/0x10200040] _swilseek
----------------
IN: _swilseek
0x0000aee0:  e3540002  cmp      r4, #2
0x0000aee4:  8a00002c  bhi      #0xaf9c

Linking TBs 0x7fc8dc81b240 [0000aed8] index 1 -> 0x7fc8dc81b3c0 [0000aee0]
Trace 0: 0x7fc8dc81b3c0 [00000000/0000aee0/0x10200040] _swilseek
----------------
IN: _swilseek
0x0000aee8:  e3540001  cmp      r4, #1
0x0000aeec:  0a00001e  beq      #0xaf6c

Linking TBs 0x7fc8dc81b3c0 [0000aee0] index 1 -> 0x7fc8dc81b540 [0000aee8]
Trace 0: 0x7fc8dc81b540 [00000000/0000aee8/0x10200040] _swilseek
----------------
IN: _swilseek
0x0000af6c:  e5965004  ldr      r5, [r6, #4]
0x0000af70:  e0999005  adds     sb, sb, r5
0x0000af74:  4a000008  bmi      #0xaf9c

Linking TBs 0x7fc8dc81b540 [0000aee8] index 0 -> 0x7fc8dc81b6c0 [0000af6c]
Trace 0: 0x7fc8dc81b6c0 [00000000/0000af6c/0x10200040] _swilseek
----------------
IN: _swilseek
0x0000af78:  e5963000  ldr      r3, [r6]
0x0000af7c:  e1a0800d  mov      r8, sp
0x0000af80:  eaffffde  b        #0xaf00

Linking TBs 0x7fc8dc81b6c0 [0000af6c] index 1 -> 0x7fc8dc81b880 [0000af78]
Trace 0: 0x7fc8dc81b880 [00000000/0000af78/0x10200040] _swilseek
----------------
IN: _swilseek
0x0000af00:  e88d0208  stm      sp, {r3, sb}
0x0000af04:  e3a0400a  mov      r4, #0xa
0x0000af08:  e1a00004  mov      r0, r4
0x0000af0c:  e1a01008  mov      r1, r8
0x0000af10:  ef123456  svc      #0x123456

Linking TBs 0x7fc8dc81b880 [0000af78] index 0 -> 0x7fc8dc81ba00 [0000af00]
Trace 0: 0x7fc8dc81ba00 [00000000/0000af00/0x10200040] _swilseek
----------------
IN: _swilseek
0x0000af14:  e1a04000  mov      r4, r0
0x0000af18:  e3740001  cmn      r4, #1
0x0000af1c:  0a000023  beq      #0xafb0

Trace 0: 0x7fc8dc81bbc0 [00000000/0000af14/0x10200040] _swilseek
----------------
IN: _swilseek
0x0000af20:  e3540000  cmp      r4, #0
0x0000af24:  ba00001a  blt      #0xaf94

Linking TBs 0x7fc8dc81bbc0 [0000af14] index 1 -> 0x7fc8dc81bd40 [0000af20]
Trace 0: 0x7fc8dc81bd40 [00000000/0000af20/0x10200040] _swilseek
----------------
IN: _swilseek
0x0000af28:  e5869004  str      sb, [r6, #4]
0x0000af2c:  e1a00009  mov      r0, sb
0x0000af30:  e28dd00c  add      sp, sp, #0xc
0x0000af34:  e8bd43f0  pop      {r4, r5, r6, r7, r8, sb, lr}
0x0000af38:  e12fff1e  bx       lr

Linking TBs 0x7fc8dc81bd40 [0000af20] index 1 -> 0x7fc8dc81be80 [0000af28]
Trace 0: 0x7fc8dc81be80 [00000000/0000af28/0x10200040] _swilseek
----------------
IN: _get_semihosting_exts
0x0000b5a4:  e3500000  cmp      r0, #0
0x0000b5a8:  ba00000c  blt      #0xb5e0

Trace 0: 0x7fc8dc81c240 [00000000/0000b5a4/0x10200040] _get_semihosting_exts
----------------
IN: _get_semihosting_exts
0x0000b5ac:  e1a02006  mov      r2, r6
0x0000b5b0:  e1a01007  mov      r1, r7
0x0000b5b4:  e1a00005  mov      r0, r5
0x0000b5b8:  ebfffe1c  bl       #0xae30

Linking TBs 0x7fc8dc81c240 [0000b5a4] index 1 -> 0x7fc8dc81c380 [0000b5ac]
Trace 0: 0x7fc8dc81c380 [00000000/0000b5ac/0x10200040] _get_semihosting_exts
Chain 0: 0x7fc8dc819780 [00000000/0000ae30/0x10200040] _read
Chain 0: 0x7fc8dc819bc0 [00000000/0000ae44/0x10200040] _read
Trace 0: 0x7fc8dc819fc0 [00000000/0000ae6c/0x10200040] _read
----------------
IN: _get_semihosting_exts
0x0000b5bc:  e1a04000  mov      r4, r0
0x0000b5c0:  e1a00005  mov      r0, r5
0x0000b5c4:  ebfffeda  bl       #0xb134

Trace 0: 0x7fc8dc81c4c0 [00000000/0000b5bc/0x10200040] _get_semihosting_exts
----------------
IN: _close
0x0000b134:  e92d4070  push     {r4, r5, r6, lr}
0x0000b138:  e24dd008  sub      sp, sp, #8
0x0000b13c:  e1a04000  mov      r4, r0
0x0000b140:  ebffff01  bl       #0xad4c

Trace 0: 0x7fc8dc81c600 [00000000/0000b134/0x10200040] _close
Chain 0: 0x7fc8dc816380 [00000000/0000ad4c/0x10200040] findslot
----------------
IN: _close
0x0000b144:  e2505000  subs     r5, r0, #0
0x0000b148:  0a00001f  beq      #0xb1cc

Trace 0: 0x7fc8dc81c880 [00000000/0000b144/0x10200040] _close
----------------
IN: _close
0x0000b14c:  e2444001  sub      r4, r4, #1
0x0000b150:  e3540001  cmp      r4, #1
0x0000b154:  9a000010  bls      #0xb19c

Linking TBs 0x7fc8dc81c880 [0000b144] index 1 -> 0x7fc8dc81ca00 [0000b14c]
Trace 0: 0x7fc8dc81ca00 [00000000/0000b14c/0x10200040] _close
----------------
IN: _close
0x0000b158:  e5953000  ldr      r3, [r5]
0x0000b15c:  e3a04002  mov      r4, #2
0x0000b160:  e58d3004  str      r3, [sp, #4]
0x0000b164:  e28d6004  add      r6, sp, #4
0x0000b168:  e1a00004  mov      r0, r4
0x0000b16c:  e1a01006  mov      r1, r6
0x0000b170:  ef123456  svc      #0x123456

Linking TBs 0x7fc8dc81ca00 [0000b14c] index 1 -> 0x7fc8dc81cb80 [0000b158]
Trace 0: 0x7fc8dc81cb80 [00000000/0000b158/0x10200040] _close
----------------
IN: _close
0x0000b174:  e1a04000  mov      r4, r0
0x0000b178:  e3740001  cmn      r4, #1
0x0000b17c:  0a00000f  beq      #0xb1c0

Trace 0: 0x7fc8dc81cd80 [00000000/0000b174/0x10200040] _close
----------------
IN: _close
0x0000b180:  e3540000  cmp      r4, #0
0x0000b184:  03e02000  mvneq    r2, #0
0x0000b188:  05852000  streq    r2, [r5]
0x0000b18c:  e1a00004  mov      r0, r4
0x0000b190:  e28dd008  add      sp, sp, #8
0x0000b194:  e8bd4070  pop      {r4, r5, r6, lr}
0x0000b198:  e12fff1e  bx       lr

Linking TBs 0x7fc8dc81cd80 [0000b174] index 1 -> 0x7fc8dc81cf00 [0000b180]
Trace 0: 0x7fc8dc81cf00 [00000000/0000b180/0x10200040] _close
----------------
IN: _get_semihosting_exts
0x0000b5c8:  e3740001  cmn      r4, #1
0x0000b5cc:  0a00000f  beq      #0xb610

Trace 0: 0x7fc8dc81d240 [00000000/0000b5c8/0x10200040] _get_semihosting_exts
----------------
IN: _get_semihosting_exts
0x0000b5d0:  e1a00004  mov      r0, r4
0x0000b5d4:  e28dd00c  add      sp, sp, #0xc
0x0000b5d8:  e8bd43f0  pop      {r4, r5, r6, r7, r8, sb, lr}
0x0000b5dc:  e12fff1e  bx       lr

Linking TBs 0x7fc8dc81d240 [0000b5c8] index 1 -> 0x7fc8dc81d3c0 [0000b5d0]
Trace 0: 0x7fc8dc81d3c0 [00000000/0000b5d0/0x10200040] _get_semihosting_exts
----------------
IN: initialise_semihosting_exts
0x0000b64c:  e3500000  cmp      r0, #0
0x0000b650:  c5dd3004  ldrbgt   r3, [sp, #4]
0x0000b654:  c2032001  andgt    r2, r3, #1
0x0000b658:  c2033002  andgt    r3, r3, #2
0x0000b65c:  c984000c  stmibgt  r4, {r2, r3}
0x0000b660:  e28dd008  add      sp, sp, #8
0x0000b664:  e8bd4010  pop      {r4, lr}
0x0000b668:  e12fff1e  bx       lr

Trace 0: 0x7fc8dc81d740 [00000000/0000b64c/0x10200040] initialise_semihosting_exts
----------------
IN: initialise_monitor_handles
0x0000b814:  e5953008  ldr      r3, [r5, #8]
0x0000b818:  eaffffc6  b        #0xb738

Trace 0: 0x7fc8dc81db00 [00000000/0000b814/0x10200040] initialise_monitor_handles
----------------
IN: initialise_monitor_handles
0x0000b738:  e3530000  cmp      r3, #0
0x0000b73c:  1a000007  bne      #0xb760

Trace 0: 0x7fc8dc81dc80 [00000000/0000b738/0x10200040] initialise_monitor_handles
----------------
IN: initialise_monitor_handles
0x0000b760:  e3a09003  mov      sb, #3
0x0000b764:  e3a03004  mov      r3, #4
0x0000b768:  e58d7004  str      r7, [sp, #4]
0x0000b76c:  e3a08001  mov      r8, #1
0x0000b770:  e58d900c  str      sb, [sp, #0xc]
0x0000b774:  e58d3008  str      r3, [sp, #8]
0x0000b778:  e1a00008  mov      r0, r8
0x0000b77c:  e1a01006  mov      r1, r6
0x0000b780:  ef123456  svc      #0x123456

Linking TBs 0x7fc8dc81dc80 [0000b738] index 0 -> 0x7fc8dc81ddc0 [0000b760]
Trace 0: 0x7fc8dc81ddc0 [00000000/0000b760/0x10200040] initialise_monitor_handles
----------------
IN: initialise_monitor_handles
0x0000b784:  e1a0a000  mov      sl, r0
0x0000b788:  e3a03008  mov      r3, #8
0x0000b78c:  e58d7004  str      r7, [sp, #4]
0x0000b790:  e584a0ac  str      sl, [r4, #0xac]
0x0000b794:  e58d900c  str      sb, [sp, #0xc]
0x0000b798:  e58d3008  str      r3, [sp, #8]
0x0000b79c:  e1a00008  mov      r0, r8
0x0000b7a0:  e1a01006  mov      r1, r6
0x0000b7a4:  ef123456  svc      #0x123456

Trace 0: 0x7fc8dc81e000 [00000000/0000b784/0x10200040] initialise_monitor_handles
----------------
IN: initialise_monitor_handles
0x0000b7a8:  e1a06000  mov      r6, r0
0x0000b7ac:  e3a01000  mov      r1, #0
0x0000b7b0:  e3760001  cmn      r6, #1
0x0000b7b4:  059420ac  ldreq    r2, [r4, #0xac]
0x0000b7b8:  e5953008  ldr      r3, [r5, #8]
0x0000b7bc:  e58460a8  str      r6, [r4, #0xa8]
0x0000b7c0:  058420a8  streq    r2, [r4, #0xa8]
0x0000b7c4:  e59420a4  ldr      r2, [r4, #0xa4]
0x0000b7c8:  e1530001  cmp      r3, r1
0x0000b7cc:  e5841004  str      r1, [r4, #4]
0x0000b7d0:  e5842000  str      r2, [r4]
0x0000b7d4:  aa000001  bge      #0xb7e0

Trace 0: 0x7fc8dc81e280 [00000000/0000b7a8/0x10200040] initialise_monitor_handles
----------------
IN: initialise_monitor_handles
0x0000b7e0:  e3530000  cmp      r3, #0
0x0000b7e4:  0affffda  beq      #0xb754

Linking TBs 0x7fc8dc81e280 [0000b7a8] index 0 -> 0x7fc8dc81e6c0 [0000b7e0]
Trace 0: 0x7fc8dc81e6c0 [00000000/0000b7e0/0x10200040] initialise_monitor_handles
----------------
IN: initialise_monitor_handles
0x0000b7e8:  e3a03000  mov      r3, #0
0x0000b7ec:  e59410ac  ldr      r1, [r4, #0xac]
0x0000b7f0:  e59420a8  ldr      r2, [r4, #0xa8]
0x0000b7f4:  e584300c  str      r3, [r4, #0xc]
0x0000b7f8:  e5843014  str      r3, [r4, #0x14]
0x0000b7fc:  e5841008  str      r1, [r4, #8]

Linking TBs 0x7fc8dc81e6c0 [0000b7e0] index 1 -> 0x7fc8dc81e800 [0000b7e8]
Trace 0: 0x7fc8dc81e800 [00000000/0000b7e8/0x10200040] initialise_monitor_handles
----------------
IN: initialise_monitor_handles
0x0000b800:  e5842010  str      r2, [r4, #0x10]
0x0000b804:  e28dd010  add      sp, sp, #0x10
0x0000b808:  e8bd47f0  pop      {r4, r5, r6, r7, r8, sb, sl, lr}
0x0000b80c:  e12fff1e  bx       lr

Trace 0: 0x7fc8dc81eac0 [00000000/0000b800/0x10200040] initialise_monitor_handles
----------------
IN: frame_dummy
0x000001fc:  e3b00015  movs     r0, #0x15
0x00000200:  e59f10c4  ldr      r1, [pc, #0xc4]
0x00000204:  ef123456  svc      #0x123456

Trace 0: 0x7fc8dc81eec0 [00000000/000001fc/0x10200040] frame_dummy
----------------
IN: frame_dummy
0x00000208:  e59f10bc  ldr      r1, [pc, #0xbc]
0x0000020c:  e5911000  ldr      r1, [r1]
0x00000210:  e3b00000  movs     r0, #0
0x00000214:  e92d0001  stmdb    sp!, {r0}
0x00000218:  e4d13001  ldrb     r3, [r1], #1
0x0000021c:  e3530000  cmp      r3, #0
0x00000220:  0a000011  beq      #0x26c

Trace 0: 0x7fc8dc81f040 [00000000/00000208/0x10200040] frame_dummy
----------------
IN: frame_dummy
0x0000026c:  e1a0100d  mov      r1, sp
0x00000270:  e08d2100  add      r2, sp, r0, lsl #2
0x00000274:  e1a0300d  mov      r3, sp
0x00000278:  e1520003  cmp      r2, r3
0x0000027c:  85124004  ldrhi    r4, [r2, #-4]
0x00000280:  85935000  ldrhi    r5, [r3]
0x00000284:  85225004  strhi    r5, [r2, #-4]!
0x00000288:  84834004  strhi    r4, [r3], #4
0x0000028c:  8afffff9  bhi      #0x278

Linking TBs 0x7fc8dc81f040 [00000208] index 0 -> 0x7fc8dc81f300 [0000026c]
Trace 0: 0x7fc8dc81f300 [00000000/0000026c/0x10200040] frame_dummy
----------------
IN: frame_dummy
0x00000290:  e3cdd007  bic      sp, sp, #7
0x00000294:  e1b04000  movs     r4, r0
0x00000298:  e1b05001  movs     r5, r1
0x0000029c:  e59f0024  ldr      r0, [pc, #0x24]
0x000002a0:  eb0005c7  bl       #0x19c4

Linking TBs 0x7fc8dc81f300 [0000026c] index 1 -> 0x7fc8dc81f680 [00000290]
Trace 0: 0x7fc8dc81f680 [00000000/00000290/0x10200040] frame_dummy
----------------
IN: atexit
0x000019c4:  e3a03000  mov      r3, #0
0x000019c8:  e92d4010  push     {r4, lr}
0x000019cc:  e1a01000  mov      r1, r0
0x000019d0:  e1a02003  mov      r2, r3
0x000019d4:  e1a00003  mov      r0, r3
0x000019d8:  eb000965  bl       #0x3f74

Trace 0: 0x7fc8dc81f840 [00000000/000019c4/0x10200040] atexit
----------------
IN: __register_exitproc
0x00003f74:  e59fc080  ldr      ip, [pc, #0x80]
0x00003f78:  e92d4070  push     {r4, r5, r6, lr}
0x00003f7c:  e59ce000  ldr      lr, [ip]
0x00003f80:  e59ec148  ldr      ip, [lr, #0x148]
0x00003f84:  e35c0000  cmp      ip, #0
0x00003f88:  028ecf53  addeq    ip, lr, #0x14c
0x00003f8c:  058ec148  streq    ip, [lr, #0x148]
0x00003f90:  e59ce004  ldr      lr, [ip, #4]
0x00003f94:  e35e001f  cmp      lr, #0x1f
0x00003f98:  ca000015  bgt      #0x3ff4

Trace 0: 0x7fc8dc81fa40 [00000000/00003f74/0x10200040] __register_exitproc
----------------
IN: __register_exitproc
0x00003f9c:  e3500000  cmp      r0, #0
0x00003fa0:  1a000006  bne      #0x3fc0

Linking TBs 0x7fc8dc81fa40 [00003f74] index 1 -> 0x7fc8dc81ff00 [00003f9c]
Trace 0: 0x7fc8dc81ff00 [00000000/00003f9c/0x10200040] __register_exitproc
----------------
IN: __register_exitproc
0x00003fa4:  e3a00000  mov      r0, #0
0x00003fa8:  e28e3001  add      r3, lr, #1
0x00003fac:  e28ee002  add      lr, lr, #2
0x00003fb0:  e58c3004  str      r3, [ip, #4]
0x00003fb4:  e78c110e  str      r1, [ip, lr, lsl #2]
0x00003fb8:  e8bd4070  pop      {r4, r5, r6, lr}
0x00003fbc:  e12fff1e  bx       lr

Linking TBs 0x7fc8dc81ff00 [00003f9c] index 1 -> 0x7fc8dc820040 [00003fa4]
Trace 0: 0x7fc8dc820040 [00000000/00003fa4/0x10200040] __register_exitproc
----------------
IN: atexit
0x000019dc:  e8bd4010  pop      {r4, lr}
0x000019e0:  e12fff1e  bx       lr

Trace 0: 0x7fc8dc820380 [00000000/000019dc/0x10200040] atexit
----------------
IN: frame_dummy
0x000002a4:  eb0005e0  bl       #0x1a2c

Trace 0: 0x7fc8dc820540 [00000000/000002a4/0x10200040] frame_dummy
----------------
IN: __libc_init_array
0x00001a2c:  e92d4070  push     {r4, r5, r6, lr}
0x00001a30:  e59f606c  ldr      r6, [pc, #0x6c]
0x00001a34:  e59f506c  ldr      r5, [pc, #0x6c]
0x00001a38:  e0466005  sub      r6, r6, r5
0x00001a3c:  e1b06146  asrs     r6, r6, #2
0x00001a40:  0a000007  beq      #0x1a64

Trace 0: 0x7fc8dc820640 [00000000/00001a2c/0x10200040] __libc_init_array
----------------
IN: __libc_init_array
0x00001a64:  e59f6040  ldr      r6, [pc, #0x40]
0x00001a68:  e59f5040  ldr      r5, [pc, #0x40]
0x00001a6c:  e0466005  sub      r6, r6, r5
0x00001a70:  ebfff962  bl       #0

Linking TBs 0x7fc8dc820640 [00001a2c] index 0 -> 0x7fc8dc8209c0 [00001a64]
Trace 0: 0x7fc8dc8209c0 [00000000/00001a64/0x10200040] __libc_init_array
----------------
IN: _init
0x00000000:  e1a0c00d  mov      ip, sp
0x00000004:  e92ddff8  push     {r3, r4, r5, r6, r7, r8, sb, sl, fp, ip, lr, pc}
0x00000008:  e24cb004  sub      fp, ip, #4
0x0000000c:  e24bd028  sub      sp, fp, #0x28
0x00000010:  e89d6ff0  ldm      sp, {r4, r5, r6, r7, r8, sb, sl, fp, sp, lr}
0x00000014:  e12fff1e  bx       lr

Trace 0: 0x7fc8dc820b80 [00000000/00000000/0x10200040] _init
----------------
IN: __libc_init_array
0x00001a74:  e1b06146  asrs     r6, r6, #2
0x00001a78:  0a000007  beq      #0x1a9c

Trace 0: 0x7fc8dc8213c0 [00000000/00001a74/0x10200040] __libc_init_array
----------------
IN: __libc_init_array
0x00001a7c:  e3a04000  mov      r4, #0
0x00001a80:  e2455004  sub      r5, r5, #4
0x00001a84:  e2844001  add      r4, r4, #1
0x00001a88:  e5b53004  ldr      r3, [r5, #4]!
0x00001a8c:  e1a0e00f  mov      lr, pc
0x00001a90:  e12fff13  bx       r3

Linking TBs 0x7fc8dc8213c0 [00001a74] index 1 -> 0x7fc8dc821540 [00001a7c]
Trace 0: 0x7fc8dc821540 [00000000/00001a7c/0x10200040] __libc_init_array
----------------
IN: frame_dummy
0x000000c0:  e59f3020  ldr      r3, [pc, #0x20]
0x000000c4:  e3530000  cmp      r3, #0
0x000000c8:  0a000005  beq      #0xe4

Trace 0: 0x7fc8dc821700 [00000000/000000c0/0x10200040] frame_dummy
----------------
IN: frame_dummy
0x000000e4:  eaffffd6  b        #0x44

Linking TBs 0x7fc8dc821700 [000000c0] index 0 -> 0x7fc8dc8218c0 [000000e4]
Trace 0: 0x7fc8dc8218c0 [00000000/000000e4/0x10200040] frame_dummy
----------------
IN: register_tm_clones
0x00000044:  e59f0024  ldr      r0, [pc, #0x24]
0x00000048:  e59f1024  ldr      r1, [pc, #0x24]
0x0000004c:  e0413000  sub      r3, r1, r0
0x00000050:  e1a01fa3  lsr      r1, r3, #0x1f
0x00000054:  e0811143  add      r1, r1, r3, asr #2
0x00000058:  e1b010c1  asrs     r1, r1, #1
0x0000005c:  012fff1e  bxeq     lr

Linking TBs 0x7fc8dc8218c0 [000000e4] index 0 -> 0x7fc8dc8219c0 [00000044]
Trace 0: 0x7fc8dc8219c0 [00000000/00000044/0x10200040] register_tm_clones
----------------
IN: __libc_init_array
0x00001a94:  e1560004  cmp      r6, r4
0x00001a98:  1afffff9  bne      #0x1a84

Trace 0: 0x7fc8dc821c00 [00000000/00001a94/0x10200040] __libc_init_array
----------------
IN: __libc_init_array
0x00001a9c:  e8bd4070  pop      {r4, r5, r6, lr}
0x00001aa0:  e12fff1e  bx       lr

Linking TBs 0x7fc8dc821c00 [00001a94] index 1 -> 0x7fc8dc821d80 [00001a9c]
Trace 0: 0x7fc8dc821d80 [00000000/00001a9c/0x10200040] __libc_init_array
----------------
IN: frame_dummy
0x000002a8:  e1b00004  movs     r0, r4
0x000002ac:  e1b01005  movs     r1, r5
0x000002b0:  eb000593  bl       #0x1904

Trace 0: 0x7fc8dc822000 [00000000/000002a8/0x10200040] frame_dummy
----------------
IN: main
0x00001904:  e92d4800  push     {fp, lr}
0x00001908:  e28db004  add      fp, sp, #4
0x0000190c:  e24dd018  sub      sp, sp, #0x18
0x00001910:  e59f0084  ldr      r0, [pc, #0x84]
0x00001914:  eb0000f4  bl       #0x1cec

Trace 0: 0x7fc8dc822140 [00000000/00001904/0x10200040] main
----------------
IN: puts
0x00001cec:  e59f3008  ldr      r3, [pc, #8]
0x00001cf0:  e1a01000  mov      r1, r0
0x00001cf4:  e5930000  ldr      r0, [r3]
0x00001cf8:  eaffffd0  b        #0x1c40

Trace 0: 0x7fc8dc822380 [00000000/00001cec/0x10200040] puts
----------------
IN: _puts_r
0x00001c40:  e92d4030  push     {r4, r5, lr}
0x00001c44:  e1a05000  mov      r5, r0
0x00001c48:  e24dd024  sub      sp, sp, #0x24
0x00001c4c:  e1a00001  mov      r0, r1
0x00001c50:  e1a04001  mov      r4, r1
0x00001c54:  eb000029  bl       #0x1d00

Linking TBs 0x7fc8dc822380 [00001cec] index 0 -> 0x7fc8dc822540 [00001c40]
Trace 0: 0x7fc8dc822540 [00000000/00001c40/0x10200040] _puts_r
Linking TBs 0x7fc8dc822540 [00001c40] index 0 -> 0x7fc8dc814b00 [00001d00]
Trace 0: 0x7fc8dc814b00 [00000000/00001d00/0x10200040] strlen
----------------
IN: _puts_r
0x00001c58:  e3a0c001  mov      ip, #1
0x00001c5c:  e3a01002  mov      r1, #2
0x00001c60:  e5953038  ldr      r3, [r5, #0x38]
0x00001c64:  e59f207c  ldr      r2, [pc, #0x7c]
0x00001c68:  e3530000  cmp      r3, #0
0x00001c6c:  e080e00c  add      lr, r0, ip
0x00001c70:  e28d3010  add      r3, sp, #0x10
0x00001c74:  e58d4010  str      r4, [sp, #0x10]
0x00001c78:  e58d0014  str      r0, [sp, #0x14]
0x00001c7c:  e58de00c  str      lr, [sp, #0xc]
0x00001c80:  e5954008  ldr      r4, [r5, #8]
0x00001c84:  e58dc01c  str      ip, [sp, #0x1c]
0x00001c88:  e58d1008  str      r1, [sp, #8]
0x00001c8c:  e58d2018  str      r2, [sp, #0x18]
0x00001c90:  e58d3004  str      r3, [sp, #4]
0x00001c94:  0a000010  beq      #0x1cdc

Trace 0: 0x7fc8dc822780 [00000000/00001c58/0x10200040] _puts_r
----------------
IN: _puts_r
0x00001c98:  e1d430fc  ldrsh    r3, [r4, #0xc]
0x00001c9c:  e3130a02  tst      r3, #0x2000
0x00001ca0:  05942064  ldreq    r2, [r4, #0x64]
0x00001ca4:  03833a02  orreq    r3, r3, #0x2000
0x00001ca8:  03c22a02  biceq    r2, r2, #0x2000
0x00001cac:  05842064  streq    r2, [r4, #0x64]
0x00001cb0:  01c430bc  strheq   r3, [r4, #0xc]
0x00001cb4:  e1a01004  mov      r1, r4
0x00001cb8:  e1a00005  mov      r0, r5
0x00001cbc:  e28d2004  add      r2, sp, #4
0x00001cc0:  eb00119a  bl       #0x6330

Linking TBs 0x7fc8dc822780 [00001c58] index 1 -> 0x7fc8dc822c40 [00001c98]
Trace 0: 0x7fc8dc822c40 [00000000/00001c98/0x10200040] _puts_r
----------------
IN: __sfvwrite_r
0x00006330:  e5923008  ldr      r3, [r2, #8]
0x00006334:  e3530000  cmp      r3, #0
0x00006338:  0a00009c  beq      #0x65b0

Trace 0: 0x7fc8dc822f80 [00000000/00006330/0x10200040] __sfvwrite_r
----------------
IN: __sfvwrite_r
0x0000633c:  e92d4ff0  push     {r4, r5, r6, r7, r8, sb, sl, fp, lr}
0x00006340:  e1d130fc  ldrsh    r3, [r1, #0xc]
0x00006344:  e1a03803  lsl      r3, r3, #0x10
0x00006348:  e3130702  tst      r3, #0x80000
0x0000634c:  e24dd00c  sub      sp, sp, #0xc
0x00006350:  e1a04001  mov      r4, r1
0x00006354:  e1a09000  mov      sb, r0
0x00006358:  e1a07002  mov      r7, r2
0x0000635c:  e1a08823  lsr      r8, r3, #0x10
0x00006360:  0a000024  beq      #0x63f8

Linking TBs 0x7fc8dc822f80 [00006330] index 1 -> 0x7fc8dc823140 [0000633c]
Trace 0: 0x7fc8dc823140 [00000000/0000633c/0x10200040] __sfvwrite_r
----------------
IN: __sfvwrite_r
0x00006364:  e5912010  ldr      r2, [r1, #0x10]
0x00006368:  e3520000  cmp      r2, #0
0x0000636c:  0a000021  beq      #0x63f8

Linking TBs 0x7fc8dc823140 [0000633c] index 1 -> 0x7fc8dc823600 [00006364]
Trace 0: 0x7fc8dc823600 [00000000/00006364/0x10200040] __sfvwrite_r
----------------
IN: __sfvwrite_r
0x000063f8:  e1a01004  mov      r1, r4
0x000063fc:  e1a00009  mov      r0, sb

Linking TBs 0x7fc8dc823600 [00006364] index 0 -> 0x7fc8dc8237c0 [000063f8]
Trace 0: 0x7fc8dc8237c0 [00000000/000063f8/0x10200040] __sfvwrite_r
----------------
IN: __sfvwrite_r
0x00006400:  ebfff682  bl       #0x3e10

Trace 0: 0x7fc8dc823900 [00000000/00006400/0x10200040] __sfvwrite_r
----------------
IN: __swsetup_r
0x00003e10:  e59f3158  ldr      r3, [pc, #0x158]
0x00003e14:  e5933000  ldr      r3, [r3]
0x00003e18:  e3530000  cmp      r3, #0
0x00003e1c:  e92d4070  push     {r4, r5, r6, lr}
0x00003e20:  e1a05000  mov      r5, r0
0x00003e24:  e1a04001  mov      r4, r1
0x00003e28:  0a000002  beq      #0x3e38

Trace 0: 0x7fc8dc823a00 [00000000/00003e10/0x10200040] __swsetup_r
----------------
IN: __swsetup_r
0x00003e2c:  e5932038  ldr      r2, [r3, #0x38]
0x00003e30:  e3520000  cmp      r2, #0
0x00003e34:  0a000020  beq      #0x3ebc

Linking TBs 0x7fc8dc823a00 [00003e10] index 1 -> 0x7fc8dc823d80 [00003e2c]
Trace 0: 0x7fc8dc823d80 [00000000/00003e2c/0x10200040] __swsetup_r
----------------
IN: __swsetup_r
0x00003e38:  e1d420fc  ldrsh    r2, [r4, #0xc]
0x00003e3c:  e1a03802  lsl      r3, r2, #0x10
0x00003e40:  e1a03823  lsr      r3, r3, #0x10
0x00003e44:  e3130008  tst      r3, #8
0x00003e48:  0a00001e  beq      #0x3ec8

Linking TBs 0x7fc8dc823d80 [00003e2c] index 1 -> 0x7fc8dc823f40 [00003e38]
Trace 0: 0x7fc8dc823f40 [00000000/00003e38/0x10200040] __swsetup_r
----------------
IN: __swsetup_r
0x00003e4c:  e5940010  ldr      r0, [r4, #0x10]
0x00003e50:  e3500000  cmp      r0, #0
0x00003e54:  0a000026  beq      #0x3ef4

Linking TBs 0x7fc8dc823f40 [00003e38] index 1 -> 0x7fc8dc824100 [00003e4c]
Trace 0: 0x7fc8dc824100 [00000000/00003e4c/0x10200040] __swsetup_r
----------------
IN: __swsetup_r
0x00003ef4:  e2032d0a  and      r2, r3, #0x280
0x00003ef8:  e3520c02  cmp      r2, #0x200
0x00003efc:  0affffd5  beq      #0x3e58

Linking TBs 0x7fc8dc824100 [00003e4c] index 0 -> 0x7fc8dc8242c0 [00003ef4]
Trace 0: 0x7fc8dc8242c0 [00000000/00003ef4/0x10200040] __swsetup_r
----------------
IN: __swsetup_r
0x00003f00:  e1a00005  mov      r0, r5
0x00003f04:  e1a01004  mov      r1, r4
0x00003f08:  eb000aaf  bl       #0x69cc

Linking TBs 0x7fc8dc8242c0 [00003ef4] index 1 -> 0x7fc8dc824440 [00003f00]
Trace 0: 0x7fc8dc824440 [00000000/00003f00/0x10200040] __swsetup_r
----------------
IN: __smakebuf_r
0x000069cc:  e92d4070  push     {r4, r5, r6, lr}
0x000069d0:  e1d120bc  ldrh     r2, [r1, #0xc]
0x000069d4:  e3120002  tst      r2, #2
0x000069d8:  e24dd008  sub      sp, sp, #8
0x000069dc:  e1a04001  mov      r4, r1
0x000069e0:  0a000007  beq      #0x6a04

Trace 0: 0x7fc8dc824580 [00000000/000069cc/0x10200040] __smakebuf_r
----------------
IN: __smakebuf_r
0x00006a04:  e28d3004  add      r3, sp, #4
0x00006a08:  e1a0200d  mov      r2, sp
0x00006a0c:  e1a05000  mov      r5, r0
0x00006a10:  ebffffc5  bl       #0x692c

Linking TBs 0x7fc8dc824580 [000069cc] index 0 -> 0x7fc8dc824880 [00006a04]
Trace 0: 0x7fc8dc824880 [00000000/00006a04/0x10200040] __smakebuf_r
----------------
IN: __swhatbuf_r
0x0000692c:  e92d4070  push     {r4, r5, r6, lr}
0x00006930:  e1a04001  mov      r4, r1
0x00006934:  e1d110fe  ldrsh    r1, [r1, #0xe]
0x00006938:  e3510000  cmp      r1, #0
0x0000693c:  e24dd058  sub      sp, sp, #0x58
0x00006940:  e1a05002  mov      r5, r2
0x00006944:  e1a06003  mov      r6, r3
0x00006948:  ba00000f  blt      #0x698c

Linking TBs 0x7fc8dc824880 [00006a04] index 0 -> 0x7fc8dc8249c0 [0000692c]
Trace 0: 0x7fc8dc8249c0 [00000000/0000692c/0x10200040] __swhatbuf_r
----------------
IN: __swhatbuf_r
0x0000694c:  e1a0200d  mov      r2, sp
0x00006950:  eb000e6e  bl       #0xa310

Linking TBs 0x7fc8dc8249c0 [0000692c] index 1 -> 0x7fc8dc824d00 [0000694c]
Trace 0: 0x7fc8dc824d00 [00000000/0000694c/0x10200040] __swhatbuf_r
----------------
IN: _fstat_r
0x0000a310:  e1a0c001  mov      ip, r1
0x0000a314:  e3a03000  mov      r3, #0
0x0000a318:  e92d4070  push     {r4, r5, r6, lr}
0x0000a31c:  e59f402c  ldr      r4, [pc, #0x2c]
0x0000a320:  e1a05000  mov      r5, r0
0x0000a324:  e1a01002  mov      r1, r2
0x0000a328:  e1a0000c  mov      r0, ip
0x0000a32c:  e5843000  str      r3, [r4]
0x0000a330:  eb0003ee  bl       #0xb2f0

Trace 0: 0x7fc8dc824e40 [00000000/0000a310/0x10200040] _fstat_r
----------------
IN: _fstat
0x0000b2f0:  e92d4010  push     {r4, lr}
0x0000b2f4:  e3a02058  mov      r2, #0x58
0x0000b2f8:  e1a04000  mov      r4, r0
0x0000b2fc:  e1a00001  mov      r0, r1
0x0000b300:  e3a01000  mov      r1, #0
0x0000b304:  ebffd9ea  bl       #0x1ab4

Trace 0: 0x7fc8dc825180 [00000000/0000b2f0/0x10200040] _fstat
Chain 0: 0x7fc8dc811900 [00000000/00001ab4/0x10200040] memset
----------------
IN: _fstat
0x0000b308:  e1a01000  mov      r1, r0
0x0000b30c:  e1a00004  mov      r0, r4
0x0000b310:  e8bd4010  pop      {r4, lr}
0x0000b314:  eaffffd5  b        #0xb270

Trace 0: 0x7fc8dc825380 [00000000/0000b308/0x10200040] _fstat
----------------
IN: _swistat
0x0000b270:  e92d4070  push     {r4, r5, r6, lr}
0x0000b274:  e1a05001  mov      r5, r1
0x0000b278:  ebfffeb3  bl       #0xad4c

Linking TBs 0x7fc8dc825380 [0000b308] index 0 -> 0x7fc8dc825540 [0000b270]
Trace 0: 0x7fc8dc825540 [00000000/0000b270/0x10200040] _swistat
Chain 0: 0x7fc8dc816380 [00000000/0000ad4c/0x10200040] findslot
----------------
IN: _swistat
0x0000b27c:  e2506000  subs     r6, r0, #0
0x0000b280:  0a000015  beq      #0xb2dc

Trace 0: 0x7fc8dc8257c0 [00000000/0000b27c/0x10200040] _swistat
----------------
IN: _swistat
0x0000b284:  e3a02b01  mov      r2, #0x400
0x0000b288:  e5953004  ldr      r3, [r5, #4]
0x0000b28c:  e3833a02  orr      r3, r3, #0x2000
0x0000b290:  e5853004  str      r3, [r5, #4]
0x0000b294:  e5852048  str      r2, [r5, #0x48]
0x0000b298:  e3a0400c  mov      r4, #0xc
0x0000b29c:  e1a00004  mov      r0, r4
0x0000b2a0:  e1a01006  mov      r1, r6
0x0000b2a4:  ef123456  svc      #0x123456

Linking TBs 0x7fc8dc8257c0 [0000b27c] index 1 -> 0x7fc8dc825940 [0000b284]
Trace 0: 0x7fc8dc825940 [00000000/0000b284/0x10200040] _swistat
----------------
IN: _swistat
0x0000b2a8:  e1a04000  mov      r4, r0
0x0000b2ac:  e3740001  cmn      r4, #1
0x0000b2b0:  0a000004  beq      #0xb2c8

Trace 0: 0x7fc8dc825b80 [00000000/0000b2a8/0x10200040] _swistat
----------------
IN: _swistat
0x0000b2b4:  e5854010  str      r4, [r5, #0x10]
0x0000b2b8:  e3a04000  mov      r4, #0
0x0000b2bc:  e1a00004  mov      r0, r4
0x0000b2c0:  e8bd4070  pop      {r4, r5, r6, lr}
0x0000b2c4:  e12fff1e  bx       lr

Linking TBs 0x7fc8dc825b80 [0000b2a8] index 1 -> 0x7fc8dc825d00 [0000b2b4]
Trace 0: 0x7fc8dc825d00 [00000000/0000b2b4/0x10200040] _swistat
----------------
IN: _fstat_r
0x0000a334:  e3700001  cmn      r0, #1
0x0000a338:  1a000002  bne      #0xa348

Trace 0: 0x7fc8dc825fc0 [00000000/0000a334/0x10200040] _fstat_r
----------------
IN: _fstat_r
0x0000a348:  e8bd4070  pop      {r4, r5, r6, lr}
0x0000a34c:  e12fff1e  bx       lr

Linking TBs 0x7fc8dc825fc0 [0000a334] index 0 -> 0x7fc8dc826140 [0000a348]
Trace 0: 0x7fc8dc826140 [00000000/0000a348/0x10200040] _fstat_r
----------------
IN: __swhatbuf_r
0x00006954:  e3500000  cmp      r0, #0
0x00006958:  ba00000b  blt      #0x698c

Trace 0: 0x7fc8dc8263c0 [00000000/00006954/0x10200040] __swhatbuf_r
----------------
IN: __swhatbuf_r
0x0000695c:  e59d2004  ldr      r2, [sp, #4]
0x00006960:  e2022a0f  and      r2, r2, #0xf000
0x00006964:  e2423a02  sub      r3, r2, #0x2000
0x00006968:  e2732000  rsbs     r2, r3, #0
0x0000696c:  e0a22003  adc      r2, r2, r3
0x00006970:  e3a00b02  mov      r0, #0x800
0x00006974:  e3a03b01  mov      r3, #0x400
0x00006978:  e5862000  str      r2, [r6]
0x0000697c:  e5853000  str      r3, [r5]
0x00006980:  e28dd058  add      sp, sp, #0x58
0x00006984:  e8bd4070  pop      {r4, r5, r6, lr}
0x00006988:  e12fff1e  bx       lr

Linking TBs 0x7fc8dc8263c0 [00006954] index 1 -> 0x7fc8dc826500 [0000695c]
Trace 0: 0x7fc8dc826500 [00000000/0000695c/0x10200040] __swhatbuf_r
----------------
IN: __smakebuf_r
0x00006a14:  e59d1000  ldr      r1, [sp]
0x00006a18:  e1a06000  mov      r6, r0
0x00006a1c:  e1a00005  mov      r0, r5
0x00006a20:  eb000029  bl       #0x6acc

Trace 0: 0x7fc8dc826900 [00000000/00006a14/0x10200040] __smakebuf_r
----------------
IN: _malloc_r
0x00006acc:  e92d4ff0  push     {r4, r5, r6, r7, r8, sb, sl, fp, lr}
0x00006ad0:  e281500b  add      r5, r1, #0xb
0x00006ad4:  e3550016  cmp      r5, #0x16
0x00006ad8:  e24dd00c  sub      sp, sp, #0xc
0x00006adc:  e1a06000  mov      r6, r0
0x00006ae0:  8a000023  bhi      #0x6b74

Linking TBs 0x7fc8dc826900 [00006a14] index 0 -> 0x7fc8dc826a80 [00006acc]
Trace 0: 0x7fc8dc826a80 [00000000/00006acc/0x10200040] _malloc_r
----------------
IN: _malloc_r
0x00006b74:  e3c55007  bic      r5, r5, #7
0x00006b78:  e1510005  cmp      r1, r5
0x00006b7c:  93a01000  movls    r1, #0
0x00006b80:  83a01001  movhi    r1, #1
0x00006b84:  e1913fa5  orrs     r3, r1, r5, lsr #31
0x00006b88:  1afffff2  bne      #0x6b58

Linking TBs 0x7fc8dc826a80 [00006acc] index 0 -> 0x7fc8dc826f00 [00006b74]
Trace 0: 0x7fc8dc826f00 [00000000/00006b74/0x10200040] _malloc_r
----------------
IN: _malloc_r
0x00006b8c:  eb00029c  bl       #0x7604

Linking TBs 0x7fc8dc826f00 [00006b74] index 1 -> 0x7fc8dc827100 [00006b8c]
Trace 0: 0x7fc8dc827100 [00000000/00006b8c/0x10200040] _malloc_r
----------------
IN: __malloc_lock
0x00007604:  e12fff1e  bx       lr

Trace 0: 0x7fc8dc827200 [00000000/00007604/0x10200040] __malloc_lock
----------------
IN: _malloc_r
0x00006b90:  e3550f7e  cmp      r5, #0x1f8
0x00006b94:  3a000127  blo      #0x7038

Trace 0: 0x7fc8dc827340 [00000000/00006b90/0x10200040] _malloc_r
----------------
IN: _malloc_r
0x00006b98:  e1b034a5  lsrs     r3, r5, #9
0x00006b9c:  0a0000aa  beq      #0x6e4c

Linking TBs 0x7fc8dc827340 [00006b90] index 1 -> 0x7fc8dc8274c0 [00006b98]
Trace 0: 0x7fc8dc8274c0 [00000000/00006b98/0x10200040] _malloc_r
----------------
IN: _malloc_r
0x00006ba0:  e3530004  cmp      r3, #4
0x00006ba4:  8a000109  bhi      #0x6fd0

Linking TBs 0x7fc8dc8274c0 [00006b98] index 1 -> 0x7fc8dc827640 [00006ba0]
Trace 0: 0x7fc8dc827640 [00000000/00006ba0/0x10200040] _malloc_r
----------------
IN: _malloc_r
0x00006ba8:  e1a03325  lsr      r3, r5, #6
0x00006bac:  e2830039  add      r0, r3, #0x39
0x00006bb0:  e283c038  add      ip, r3, #0x38
0x00006bb4:  e1a01180  lsl      r1, r0, #3
0x00006bb8:  e59f76b0  ldr      r7, [pc, #0x6b0]
0x00006bbc:  e0871001  add      r1, r7, r1
0x00006bc0:  e5914004  ldr      r4, [r1, #4]
0x00006bc4:  e2411008  sub      r1, r1, #8
0x00006bc8:  e1510004  cmp      r1, r4
0x00006bcc:  1a000005  bne      #0x6be8

Linking TBs 0x7fc8dc827640 [00006ba0] index 1 -> 0x7fc8dc8277c0 [00006ba8]
Trace 0: 0x7fc8dc8277c0 [00000000/00006ba8/0x10200040] _malloc_r
----------------
IN: _malloc_r
0x00006bd0:  ea00000f  b        #0x6c14

Linking TBs 0x7fc8dc8277c0 [00006ba8] index 1 -> 0x7fc8dc827a40 [00006bd0]
Trace 0: 0x7fc8dc827a40 [00000000/00006bd0/0x10200040] _malloc_r
----------------
IN: _malloc_r
0x00006c14:  e5974010  ldr      r4, [r7, #0x10]
0x00006c18:  e59fc654  ldr      ip, [pc, #0x654]
0x00006c1c:  e154000c  cmp      r4, ip
0x00006c20:  05973004  ldreq    r3, [r7, #4]
0x00006c24:  0a000018  beq      #0x6c8c

Trace 0: 0x7fc8dc827b40 [00000000/00006c14/0x10200040] _malloc_r
----------------
IN: _malloc_r
0x00006c8c:  e3a01001  mov      r1, #1
0x00006c90:  e1a02140  asr      r2, r0, #2
0x00006c94:  e1a0e211  lsl      lr, r1, r2
0x00006c98:  e15e0003  cmp      lr, r3
0x00006c9c:  9a00006e  bls      #0x6e5c

Linking TBs 0x7fc8dc827b40 [00006c14] index 0 -> 0x7fc8dc827dc0 [00006c8c]
Trace 0: 0x7fc8dc827dc0 [00000000/00006c8c/0x10200040] _malloc_r
----------------
IN: _malloc_r
0x00006ca0:  e5974008  ldr      r4, [r7, #8]
0x00006ca4:  e5948004  ldr      r8, [r4, #4]
0x00006ca8:  e3c88003  bic      r8, r8, #3
0x00006cac:  e1580005  cmp      r8, r5
0x00006cb0:  23a02000  movhs    r2, #0
0x00006cb4:  33a02001  movlo    r2, #1
0x00006cb8:  e0483005  sub      r3, r8, r5
0x00006cbc:  e353000f  cmp      r3, #0xf
0x00006cc0:  d3822001  orrle    r2, r2, #1
0x00006cc4:  e3520000  cmp      r2, #0
0x00006cc8:  0a000098  beq      #0x6f30

Linking TBs 0x7fc8dc827dc0 [00006c8c] index 1 -> 0x7fc8dc827f80 [00006ca0]
Trace 0: 0x7fc8dc827f80 [00000000/00006ca0/0x10200040] _malloc_r
----------------
IN: _malloc_r
0x00006ccc:  e59f95a4  ldr      sb, [pc, #0x5a4]
0x00006cd0:  e5972408  ldr      r2, [r7, #0x408]
0x00006cd4:  e5993000  ldr      r3, [sb]
0x00006cd8:  e3720001  cmn      r2, #1
0x00006cdc:  e0853003  add      r3, r5, r3
0x00006ce0:  12833a01  addne    r3, r3, #0x1000
0x00006ce4:  1283300f  addne    r3, r3, #0xf
0x00006ce8:  13c32eff  bicne    r2, r3, #0xff0
0x00006cec:  02832010  addeq    r2, r3, #0x10
0x00006cf0:  13c2200f  bicne    r2, r2, #0xf
0x00006cf4:  e1a01002  mov      r1, r2
0x00006cf8:  e1a00006  mov      r0, r6
0x00006cfc:  e58d2000  str      r2, [sp]
0x00006d00:  eb00071b  bl       #0x8974

Linking TBs 0x7fc8dc827f80 [00006ca0] index 1 -> 0x7fc8dc828280 [00006ccc]
Trace 0: 0x7fc8dc828280 [00000000/00006ccc/0x10200040] _malloc_r
----------------
IN: _sbrk_r
0x00008974:  e3a03000  mov      r3, #0
0x00008978:  e92d4070  push     {r4, r5, r6, lr}
0x0000897c:  e59f4030  ldr      r4, [pc, #0x30]
0x00008980:  e1a05000  mov      r5, r0
0x00008984:  e1a00001  mov      r0, r1
0x00008988:  e5843000  str      r3, [r4]
0x0000898c:  eb000a16  bl       #0xb1ec

Trace 0: 0x7fc8dc8285c0 [00000000/00008974/0x10200040] _sbrk_r
----------------
IN: _sbrk
0x0000b1ec:  e59f206c  ldr      r2, [pc, #0x6c]
0x0000b1f0:  e59230a0  ldr      r3, [r2, #0xa0]
0x0000b1f4:  e92d4010  push     {r4, lr}
0x0000b1f8:  e3530000  cmp      r3, #0
0x0000b1fc:  059f1060  ldreq    r1, [pc, #0x60]
0x0000b200:  01a03001  moveq    r3, r1
0x0000b204:  058210a0  streq    r1, [r2, #0xa0]
0x0000b208:  e1a0100d  mov      r1, sp
0x0000b20c:  e0830000  add      r0, r3, r0
0x0000b210:  e1500001  cmp      r0, r1
0x0000b214:  8a00000a  bhi      #0xb244

Trace 0: 0x7fc8dc828900 [00000000/0000b1ec/0x10200040] _sbrk
----------------
IN: _sbrk
0x0000b218:  e59f1048  ldr      r1, [pc, #0x48]
0x0000b21c:  e59fc048  ldr      ip, [pc, #0x48]
0x0000b220:  e5911000  ldr      r1, [r1]
0x0000b224:  e151000c  cmp      r1, ip
0x0000b228:  0a000001  beq      #0xb234

Linking TBs 0x7fc8dc828900 [0000b1ec] index 1 -> 0x7fc8dc828d00 [0000b218]
Trace 0: 0x7fc8dc828d00 [00000000/0000b218/0x10200040] _sbrk
----------------
IN: _sbrk
0x0000b22c:  e1500001  cmp      r0, r1
0x0000b230:  8a000003  bhi      #0xb244

Linking TBs 0x7fc8dc828d00 [0000b218] index 1 -> 0x7fc8dc828f80 [0000b22c]
Trace 0: 0x7fc8dc828f80 [00000000/0000b22c/0x10200040] _sbrk
----------------
IN: _sbrk
0x0000b234:  e58200a0  str      r0, [r2, #0xa0]
0x0000b238:  e8bd4010  pop      {r4, lr}
0x0000b23c:  e1a00003  mov      r0, r3
0x0000b240:  e12fff1e  bx       lr

Linking TBs 0x7fc8dc828f80 [0000b22c] index 1 -> 0x7fc8dc829100 [0000b234]
Trace 0: 0x7fc8dc829100 [00000000/0000b234/0x10200040] _sbrk
----------------
IN: _sbrk_r
0x00008990:  e3700001  cmn      r0, #1
0x00008994:  0a000001  beq      #0x89a0

Trace 0: 0x7fc8dc829340 [00000000/00008990/0x10200040] _sbrk_r
----------------
IN: _sbrk_r
0x00008998:  e8bd4070  pop      {r4, r5, r6, lr}
0x0000899c:  e12fff1e  bx       lr

Linking TBs 0x7fc8dc829340 [00008990] index 1 -> 0x7fc8dc8294c0 [00008998]
Trace 0: 0x7fc8dc8294c0 [00000000/00008998/0x10200040] _sbrk_r
----------------
IN: _malloc_r
0x00006d04:  e3700001  cmn      r0, #1
0x00006d08:  e084a008  add      sl, r4, r8
0x00006d0c:  e1a0b000  mov      fp, r0
0x00006d10:  e59d2000  ldr      r2, [sp]
0x00006d14:  0a000117  beq      #0x7178

Trace 0: 0x7fc8dc829740 [00000000/00006d04/0x10200040] _malloc_r
----------------
IN: _malloc_r
0x00006d18:  e1540007  cmp      r4, r7
0x00006d1c:  115a0000  cmpne    sl, r0
0x00006d20:  8a000114  bhi      #0x7178

Linking TBs 0x7fc8dc829740 [00006d04] index 1 -> 0x7fc8dc829940 [00006d18]
Trace 0: 0x7fc8dc829940 [00000000/00006d18/0x10200040] _malloc_r
----------------
IN: _malloc_r
0x00006d24:  e5993004  ldr      r3, [sb, #4]
0x00006d28:  e15a0000  cmp      sl, r0
0x00006d2c:  e0823003  add      r3, r2, r3
0x00006d30:  e5893004  str      r3, [sb, #4]
0x00006d34:  0a000106  beq      #0x7154

Linking TBs 0x7fc8dc829940 [00006d18] index 1 -> 0x7fc8dc829b00 [00006d24]
Trace 0: 0x7fc8dc829b00 [00000000/00006d24/0x10200040] _malloc_r
----------------
IN: _malloc_r
0x00006d38:  e5971408  ldr      r1, [r7, #0x408]
0x00006d3c:  e3710001  cmn      r1, #1
0x00006d40:  104ba00a  subne    sl, fp, sl
0x00006d44:  108a3003  addne    r3, sl, r3
0x00006d48:  0587b408  streq    fp, [r7, #0x408]
0x00006d4c:  15893004  strne    r3, [sb, #4]
0x00006d50:  e21b3007  ands     r3, fp, #7
0x00006d54:  1a0000d0  bne      #0x709c

Linking TBs 0x7fc8dc829b00 [00006d24] index 1 -> 0x7fc8dc829d40 [00006d38]
Trace 0: 0x7fc8dc829d40 [00000000/00006d38/0x10200040] _malloc_r
----------------
IN: _malloc_r
0x0000709c:  e2631008  rsb      r1, r3, #8
0x000070a0:  e08bb001  add      fp, fp, r1
0x000070a4:  e2631a01  rsb      r1, r3, #0x1000
0x000070a8:  e08b2002  add      r2, fp, r2
0x000070ac:  e2811008  add      r1, r1, #8
0x000070b0:  e0411002  sub      r1, r1, r2
0x000070b4:  e1a0aa01  lsl      sl, r1, #0x14
0x000070b8:  e1a0aa2a  lsr      sl, sl, #0x14
0x000070bc:  e1a0100a  mov      r1, sl
0x000070c0:  e1a00006  mov      r0, r6
0x000070c4:  e58d3004  str      r3, [sp, #4]
0x000070c8:  e58d2000  str      r2, [sp]
0x000070cc:  eb000628  bl       #0x8974

Trace 0: 0x7fc8dc82a040 [00000000/0000709c/0x10200040] _malloc_r
Chain 0: 0x7fc8dc8285c0 [00000000/00008974/0x10200040] _sbrk_r
Chain 0: 0x7fc8dc828900 [00000000/0000b1ec/0x10200040] _sbrk
Chain 0: 0x7fc8dc829340 [00000000/00008990/0x10200040] _sbrk_r
----------------
IN: _malloc_r
0x000070d0:  e3700001  cmn      r0, #1
0x000070d4:  e89d000c  ldm      sp, {r2, r3}
0x000070d8:  1affff2b  bne      #0x6d8c

Trace 0: 0x7fc8dc82a280 [00000000/000070d0/0x10200040] _malloc_r
----------------
IN: _malloc_r
0x00006d8c:  e040200b  sub      r2, r0, fp
0x00006d90:  e082200a  add      r2, r2, sl
0x00006d94:  e5993004  ldr      r3, [sb, #4]
0x00006d98:  e3822001  orr      r2, r2, #1
0x00006d9c:  e08a3003  add      r3, sl, r3
0x00006da0:  e1540007  cmp      r4, r7
0x00006da4:  e587b008  str      fp, [r7, #8]
0x00006da8:  e5893004  str      r3, [sb, #4]
0x00006dac:  e58b2004  str      r2, [fp, #4]
0x00006db0:  0a000107  beq      #0x71d4

Trace 0: 0x7fc8dc82a480 [00000000/00006d8c/0x10200040] _malloc_r
----------------
IN: _malloc_r
0x000071d4:  e1a0400b  mov      r4, fp
0x000071d8:  eaffff07  b        #0x6dfc

Trace 0: 0x7fc8dc82a780 [00000000/000071d4/0x10200040] _malloc_r
----------------
IN: _malloc_r
0x00006dfc:  e599102c  ldr      r1, [sb, #0x2c]
0x00006e00:  e1510003  cmp      r1, r3
0x00006e04:  e5991030  ldr      r1, [sb, #0x30]
0x00006e08:  3589302c  strlo    r3, [sb, #0x2c]
0x00006e0c:  e1510003  cmp      r1, r3
0x00006e10:  35893030  strlo    r3, [sb, #0x30]
0x00006e14:  e3c22003  bic      r2, r2, #3
0x00006e18:  e0423005  sub      r3, r2, r5
0x00006e1c:  e353000f  cmp      r3, #0xf
0x00006e20:  c3a01000  movgt    r1, #0
0x00006e24:  d3a01001  movle    r1, #1
0x00006e28:  e1520005  cmp      r2, r5
0x00006e2c:  21a02001  movhs    r2, r1
0x00006e30:  33812001  orrlo    r2, r1, #1
0x00006e34:  e3520000  cmp      r2, #0
0x00006e38:  0a00003c  beq      #0x6f30

Trace 0: 0x7fc8dc82a880 [00000000/00006dfc/0x10200040] _malloc_r
----------------
IN: _malloc_r
0x00006f30:  e3852001  orr      r2, r5, #1
0x00006f34:  e3833001  orr      r3, r3, #1
0x00006f38:  e0845005  add      r5, r4, r5
0x00006f3c:  e5842004  str      r2, [r4, #4]
0x00006f40:  e1a00006  mov      r0, r6
0x00006f44:  e5875008  str      r5, [r7, #8]
0x00006f48:  e2844008  add      r4, r4, #8
0x00006f4c:  e5853004  str      r3, [r5, #4]
0x00006f50:  eb0001ac  bl       #0x7608

Linking TBs 0x7fc8dc82a880 [00006dfc] index 0 -> 0x7fc8dc82acc0 [00006f30]
Trace 0: 0x7fc8dc82acc0 [00000000/00006f30/0x10200040] _malloc_r
----------------
IN: __malloc_unlock
0x00007608:  e12fff1e  bx       lr

Trace 0: 0x7fc8dc82af00 [00000000/00007608/0x10200040] __malloc_unlock
----------------
IN: _malloc_r
0x00006f54:  e1a00004  mov      r0, r4
0x00006f58:  e28dd00c  add      sp, sp, #0xc
0x00006f5c:  e8bd4ff0  pop      {r4, r5, r6, r7, r8, sb, sl, fp, lr}
0x00006f60:  e12fff1e  bx       lr

Trace 0: 0x7fc8dc82b040 [00000000/00006f54/0x10200040] _malloc_r
----------------
IN: __smakebuf_r
0x00006a24:  e3500000  cmp      r0, #0
0x00006a28:  e1d430fc  ldrsh    r3, [r4, #0xc]
0x00006a2c:  0a00000f  beq      #0x6a70

Trace 0: 0x7fc8dc82b480 [00000000/00006a24/0x10200040] __smakebuf_r
----------------
IN: __smakebuf_r
0x00006a30:  e59d2004  ldr      r2, [sp, #4]
0x00006a34:  e59f108c  ldr      r1, [pc, #0x8c]
0x00006a38:  e3520000  cmp      r2, #0
0x00006a3c:  e59d2000  ldr      r2, [sp]
0x00006a40:  e3833080  orr      r3, r3, #0x80
0x00006a44:  e585103c  str      r1, [r5, #0x3c]
0x00006a48:  e1c430bc  strh     r3, [r4, #0xc]
0x00006a4c:  e5840000  str      r0, [r4]
0x00006a50:  e5840010  str      r0, [r4, #0x10]
0x00006a54:  e5842014  str      r2, [r4, #0x14]
0x00006a58:  1a00000f  bne      #0x6a9c

Linking TBs 0x7fc8dc82b480 [00006a24] index 1 -> 0x7fc8dc82b640 [00006a30]
Trace 0: 0x7fc8dc82b640 [00000000/00006a30/0x10200040] __smakebuf_r
----------------
IN: __smakebuf_r
0x00006a9c:  e1a00005  mov      r0, r5
0x00006aa0:  e1d410fe  ldrsh    r1, [r4, #0xe]
0x00006aa4:  eb000e2a  bl       #0xa354

Linking TBs 0x7fc8dc82b640 [00006a30] index 0 -> 0x7fc8dc82ba40 [00006a9c]
Trace 0: 0x7fc8dc82ba40 [00000000/00006a9c/0x10200040] __smakebuf_r
----------------
IN: _isatty_r
0x0000a354:  e3a03000  mov      r3, #0
0x0000a358:  e92d4070  push     {r4, r5, r6, lr}
0x0000a35c:  e59f4028  ldr      r4, [pc, #0x28]
0x0000a360:  e1a05000  mov      r5, r0
0x0000a364:  e1a00001  mov      r0, r1
0x0000a368:  e5843000  str      r3, [r4]
0x0000a36c:  eb000586  bl       #0xb98c

Trace 0: 0x7fc8dc82bbc0 [00000000/0000a354/0x10200040] _isatty_r
----------------
IN: _isatty
0x0000b98c:  e92d4070  push     {r4, r5, r6, lr}
0x0000b990:  ebfffced  bl       #0xad4c

Trace 0: 0x7fc8dc82bf00 [00000000/0000b98c/0x10200040] _isatty
Chain 0: 0x7fc8dc816380 [00000000/0000ad4c/0x10200040] findslot
----------------
IN: _isatty
0x0000b994:  e2505000  subs     r5, r0, #0
0x0000b998:  0a000012  beq      #0xb9e8

Trace 0: 0x7fc8dc82c180 [00000000/0000b994/0x10200040] _isatty
----------------
IN: _isatty
0x0000b99c:  e3a04009  mov      r4, #9
0x0000b9a0:  e1a00004  mov      r0, r4
0x0000b9a4:  e1a01005  mov      r1, r5
0x0000b9a8:  ef123456  svc      #0x123456

Linking TBs 0x7fc8dc82c180 [0000b994] index 1 -> 0x7fc8dc82c300 [0000b99c]
Trace 0: 0x7fc8dc82c300 [00000000/0000b99c/0x10200040] _isatty
----------------
IN: _isatty
0x0000b9ac:  e1a04000  mov      r4, r0
0x0000b9b0:  e3540001  cmp      r4, #1
0x0000b9b4:  0a000008  beq      #0xb9dc

Trace 0: 0x7fc8dc82c440 [00000000/0000b9ac/0x10200040] _isatty
----------------
IN: _isatty
0x0000b9dc:  e1a00004  mov      r0, r4
0x0000b9e0:  e8bd4070  pop      {r4, r5, r6, lr}
0x0000b9e4:  e12fff1e  bx       lr

Linking TBs 0x7fc8dc82c440 [0000b9ac] index 0 -> 0x7fc8dc82c5c0 [0000b9dc]
Trace 0: 0x7fc8dc82c5c0 [00000000/0000b9dc/0x10200040] _isatty
----------------
IN: _isatty_r
0x0000a370:  e3700001  cmn      r0, #1
0x0000a374:  1a000002  bne      #0xa384

Trace 0: 0x7fc8dc82c840 [00000000/0000a370/0x10200040] _isatty_r
----------------
IN: _isatty_r
0x0000a384:  e8bd4070  pop      {r4, r5, r6, lr}
0x0000a388:  e12fff1e  bx       lr

Linking TBs 0x7fc8dc82c840 [0000a370] index 0 -> 0x7fc8dc82c9c0 [0000a384]
Trace 0: 0x7fc8dc82c9c0 [00000000/0000a384/0x10200040] _isatty_r
----------------
IN: __smakebuf_r
0x00006aa8:  e3500000  cmp      r0, #0
0x00006aac:  11d430bc  ldrhne   r3, [r4, #0xc]
0x00006ab0:  13c33003  bicne    r3, r3, #3
0x00006ab4:  13833001  orrne    r3, r3, #1
0x00006ab8:  11a03803  lslne    r3, r3, #0x10
0x00006abc:  01d430fc  ldrsheq  r3, [r4, #0xc]
0x00006ac0:  11a03843  asrne    r3, r3, #0x10
0x00006ac4:  eaffffe4  b        #0x6a5c

Trace 0: 0x7fc8dc82cc40 [00000000/00006aa8/0x10200040] __smakebuf_r
----------------
IN: __smakebuf_r
0x00006a5c:  e1833006  orr      r3, r3, r6
0x00006a60:  e1c430bc  strh     r3, [r4, #0xc]
0x00006a64:  e28dd008  add      sp, sp, #8
0x00006a68:  e8bd4070  pop      {r4, r5, r6, lr}
0x00006a6c:  e12fff1e  bx       lr

Linking TBs 0x7fc8dc82cc40 [00006aa8] index 0 -> 0x7fc8dc82cec0 [00006a5c]
Trace 0: 0x7fc8dc82cec0 [00000000/00006a5c/0x10200040] __smakebuf_r
----------------
IN: __swsetup_r
0x00003f0c:  e1d430bc  ldrh     r3, [r4, #0xc]
0x00003f10:  e5940010  ldr      r0, [r4, #0x10]
0x00003f14:  eaffffcf  b        #0x3e58

Trace 0: 0x7fc8dc82d1c0 [00000000/00003f0c/0x10200040] __swsetup_r
----------------
IN: __swsetup_r
0x00003e58:  e2132001  ands     r2, r3, #1
0x00003e5c:  1a000007  bne      #0x3e80

Linking TBs 0x7fc8dc82d1c0 [00003f0c] index 0 -> 0x7fc8dc82d380 [00003e58]
Trace 0: 0x7fc8dc82d380 [00000000/00003e58/0x10200040] __swsetup_r
----------------
IN: __swsetup_r
0x00003e80:  e3a02000  mov      r2, #0
0x00003e84:  e5943014  ldr      r3, [r4, #0x14]
0x00003e88:  e3500000  cmp      r0, #0
0x00003e8c:  e2633000  rsb      r3, r3, #0
0x00003e90:  e5843018  str      r3, [r4, #0x18]
0x00003e94:  e5842008  str      r2, [r4, #8]
0x00003e98:  13a00000  movne    r0, #0
0x00003e9c:  1afffff5  bne      #0x3e78

Linking TBs 0x7fc8dc82d380 [00003e58] index 0 -> 0x7fc8dc82d4c0 [00003e80]
Trace 0: 0x7fc8dc82d4c0 [00000000/00003e80/0x10200040] __swsetup_r
----------------
IN: __swsetup_r
0x00003e78:  e8bd4070  pop      {r4, r5, r6, lr}
0x00003e7c:  e12fff1e  bx       lr

Linking TBs 0x7fc8dc82d4c0 [00003e80] index 0 -> 0x7fc8dc82d740 [00003e78]
Trace 0: 0x7fc8dc82d740 [00000000/00003e78/0x10200040] __swsetup_r
----------------
IN: __sfvwrite_r
0x00006404:  e3500000  cmp      r0, #0
0x00006408:  1a0000f8  bne      #0x67f0

Trace 0: 0x7fc8dc82d9c0 [00000000/00006404/0x10200040] __sfvwrite_r
----------------
IN: __sfvwrite_r
0x0000640c:  e1d430fc  ldrsh    r3, [r4, #0xc]
0x00006410:  e1a03803  lsl      r3, r3, #0x10
0x00006414:  e1a08823  lsr      r8, r3, #0x10
0x00006418:  e218a002  ands     sl, r8, #2
0x0000641c:  e5976000  ldr      r6, [r7]
0x00006420:  1affffd5  bne      #0x637c

Linking TBs 0x7fc8dc82d9c0 [00006404] index 1 -> 0x7fc8dc82db00 [0000640c]
Trace 0: 0x7fc8dc82db00 [00000000/0000640c/0x10200040] __sfvwrite_r
----------------
IN: __sfvwrite_r
0x00006424:  e2188001  ands     r8, r8, #1
0x00006428:  1a000062  bne      #0x65b8

Linking TBs 0x7fc8dc82db00 [0000640c] index 1 -> 0x7fc8dc82dd00 [00006424]
Trace 0: 0x7fc8dc82dd00 [00000000/00006424/0x10200040] __sfvwrite_r
----------------
IN: __sfvwrite_r
0x000065b8:  e1a0000a  mov      r0, sl
0x000065bc:  e1a0b00a  mov      fp, sl
0x000065c0:  e1a0800a  mov      r8, sl
0x000065c4:  ea000025  b        #0x6660

Linking TBs 0x7fc8dc82dd00 [00006424] index 0 -> 0x7fc8dc82de40 [000065b8]
Trace 0: 0x7fc8dc82de40 [00000000/000065b8/0x10200040] __sfvwrite_r
----------------
IN: __sfvwrite_r
0x00006660:  e3580000  cmp      r8, #0
0x00006664:  1affffd7  bne      #0x65c8

Linking TBs 0x7fc8dc82de40 [000065b8] index 0 -> 0x7fc8dc82df80 [00006660]
Trace 0: 0x7fc8dc82df80 [00000000/00006660/0x10200040] __sfvwrite_r
----------------
IN: __sfvwrite_r
0x00006668:  e2863008  add      r3, r6, #8
0x0000666c:  e5138004  ldr      r8, [r3, #-4]
0x00006670:  e3580000  cmp      r8, #0
0x00006674:  e1a06003  mov      r6, r3
0x00006678:  e513b008  ldr      fp, [r3, #-8]
0x0000667c:  e2833008  add      r3, r3, #8
0x00006680:  0afffff9  beq      #0x666c

Linking TBs 0x7fc8dc82df80 [00006660] index 1 -> 0x7fc8dc82e0c0 [00006668]
Trace 0: 0x7fc8dc82e0c0 [00000000/00006668/0x10200040] __sfvwrite_r
----------------
IN: __sfvwrite_r
0x00006684:  e1a02008  mov      r2, r8
0x00006688:  e3a0100a  mov      r1, #0xa
0x0000668c:  e1a0000b  mov      r0, fp
0x00006690:  eb0002fa  bl       #0x7280

Linking TBs 0x7fc8dc82e0c0 [00006668] index 1 -> 0x7fc8dc82e300 [00006684]
Trace 0: 0x7fc8dc82e300 [00000000/00006684/0x10200040] __sfvwrite_r
----------------
IN: memchr
0x00007280:  e3100003  tst      r0, #3
0x00007284:  e92d4070  push     {r4, r5, r6, lr}
0x00007288:  e20140ff  and      r4, r1, #0xff
0x0000728c:  0a000038  beq      #0x7374

Trace 0: 0x7fc8dc82e440 [00000000/00007280/0x10200040] memchr
----------------
IN: memchr
0x00007374:  e1a0c002  mov      ip, r2
0x00007378:  eaffffd5  b        #0x72d4

Linking TBs 0x7fc8dc82e440 [00007280] index 0 -> 0x7fc8dc82e700 [00007374]
Trace 0: 0x7fc8dc82e700 [00000000/00007374/0x10200040] memchr
----------------
IN: memchr
0x000072d4:  e35c0003  cmp      ip, #3
0x000072d8:  8a000011  bhi      #0x7324

Linking TBs 0x7fc8dc82e700 [00007374] index 0 -> 0x7fc8dc82e800 [000072d4]
Trace 0: 0x7fc8dc82e800 [00000000/000072d4/0x10200040] memchr
----------------
IN: memchr
0x00007324:  e1a0e000  mov      lr, r0
0x00007328:  e59f3054  ldr      r3, [pc, #0x54]
0x0000732c:  e0033401  and      r3, r3, r1, lsl #8
0x00007330:  e1833004  orr      r3, r3, r4
0x00007334:  e59f604c  ldr      r6, [pc, #0x4c]
0x00007338:  e59f504c  ldr      r5, [pc, #0x4c]
0x0000733c:  e1833803  orr      r3, r3, r3, lsl #16
0x00007340:  e59e2000  ldr      r2, [lr]
0x00007344:  e0222003  eor      r2, r2, r3
0x00007348:  e0821006  add      r1, r2, r6
0x0000734c:  e1c12002  bic      r2, r1, r2
0x00007350:  e1120005  tst      r2, r5
0x00007354:  e1a0000e  mov      r0, lr
0x00007358:  e28ee004  add      lr, lr, #4
0x0000735c:  1affffe0  bne      #0x72e4

Linking TBs 0x7fc8dc82e800 [000072d4] index 0 -> 0x7fc8dc82e980 [00007324]
Trace 0: 0x7fc8dc82e980 [00000000/00007324/0x10200040] memchr
----------------
IN: memchr
0x00007360:  e24cc004  sub      ip, ip, #4
0x00007364:  e35c0003  cmp      ip, #3
0x00007368:  e1a0000e  mov      r0, lr
0x0000736c:  8afffff3  bhi      #0x7340

Linking TBs 0x7fc8dc82e980 [00007324] index 1 -> 0x7fc8dc82ec80 [00007360]
Trace 0: 0x7fc8dc82ec80 [00000000/00007360/0x10200040] memchr
----------------
IN: memchr
0x00007340:  e59e2000  ldr      r2, [lr]
0x00007344:  e0222003  eor      r2, r2, r3
0x00007348:  e0821006  add      r1, r2, r6
0x0000734c:  e1c12002  bic      r2, r1, r2
0x00007350:  e1120005  tst      r2, r5
0x00007354:  e1a0000e  mov      r0, lr
0x00007358:  e28ee004  add      lr, lr, #4
0x0000735c:  1affffe0  bne      #0x72e4

Linking TBs 0x7fc8dc82ec80 [00007360] index 0 -> 0x7fc8dc82ee00 [00007340]
Trace 0: 0x7fc8dc82ee00 [00000000/00007340/0x10200040] memchr
Linking TBs 0x7fc8dc82ee00 [00007340] index 1 -> 0x7fc8dc82ec80 [00007360]
Trace 0: 0x7fc8dc82ec80 [00000000/00007360/0x10200040] memchr
----------------
IN: memchr
0x00007370:  eaffffd9  b        #0x72dc

Linking TBs 0x7fc8dc82ec80 [00007360] index 1 -> 0x7fc8dc82efc0 [00007370]
Trace 0: 0x7fc8dc82efc0 [00000000/00007370/0x10200040] memchr
----------------
IN: memchr
0x000072dc:  e35c0000  cmp      ip, #0
0x000072e0:  0a000025  beq      #0x737c

Linking TBs 0x7fc8dc82efc0 [00007370] index 0 -> 0x7fc8dc82f0c0 [000072dc]
Trace 0: 0x7fc8dc82f0c0 [00000000/000072dc/0x10200040] memchr
----------------
IN: memchr
0x0000737c:  e1a0000c  mov      r0, ip
0x00007380:  eaffffe5  b        #0x731c

Linking TBs 0x7fc8dc82f0c0 [000072dc] index 0 -> 0x7fc8dc82f200 [0000737c]
Trace 0: 0x7fc8dc82f200 [00000000/0000737c/0x10200040] memchr
----------------
IN: memchr
0x0000731c:  e8bd4070  pop      {r4, r5, r6, lr}
0x00007320:  e12fff1e  bx       lr

Linking TBs 0x7fc8dc82f200 [0000737c] index 0 -> 0x7fc8dc82f300 [0000731c]
Trace 0: 0x7fc8dc82f300 [00000000/0000731c/0x10200040] memchr
----------------
IN: __sfvwrite_r
0x00006694:  e3500000  cmp      r0, #0
0x00006698:  0a00004d  beq      #0x67d4

Trace 0: 0x7fc8dc82f580 [00000000/00006694/0x10200040] __sfvwrite_r
----------------
IN: __sfvwrite_r
0x000067d4:  e2883001  add      r3, r8, #1
0x000067d8:  e1a0a003  mov      sl, r3
0x000067dc:  eaffff7c  b        #0x65d4

Linking TBs 0x7fc8dc82f580 [00006694] index 0 -> 0x7fc8dc82f6c0 [000067d4]
Trace 0: 0x7fc8dc82f6c0 [00000000/000067d4/0x10200040] __sfvwrite_r
----------------
IN: __sfvwrite_r
0x000065d4:  e1580003  cmp      r8, r3
0x000065d8:  31a03008  movlo    r3, r8
0x000065dc:  e5941014  ldr      r1, [r4, #0x14]
0x000065e0:  e5945008  ldr      r5, [r4, #8]
0x000065e4:  e5940000  ldr      r0, [r4]
0x000065e8:  e594c010  ldr      ip, [r4, #0x10]
0x000065ec:  e0815005  add      r5, r1, r5
0x000065f0:  e150000c  cmp      r0, ip
0x000065f4:  93a02000  movls    r2, #0
0x000065f8:  83a02001  movhi    r2, #1
0x000065fc:  e1530005  cmp      r3, r5
0x00006600:  d3a02000  movle    r2, #0
0x00006604:  e3520000  cmp      r2, #0
0x00006608:  1affffd6  bne      #0x6568

Linking TBs 0x7fc8dc82f6c0 [000067d4] index 0 -> 0x7fc8dc82f800 [000065d4]
Trace 0: 0x7fc8dc82f800 [00000000/000065d4/0x10200040] __sfvwrite_r
----------------
IN: __sfvwrite_r
0x0000660c:  e1510003  cmp      r1, r3
0x00006610:  ca000056  bgt      #0x6770

Linking TBs 0x7fc8dc82f800 [000065d4] index 1 -> 0x7fc8dc82fc00 [0000660c]
Trace 0: 0x7fc8dc82fc00 [00000000/0000660c/0x10200040] __sfvwrite_r
----------------
IN: __sfvwrite_r
0x00006770:  e1a02003  mov      r2, r3
0x00006774:  e1a0100b  mov      r1, fp
0x00006778:  e1a05003  mov      r5, r3
0x0000677c:  e58d3004  str      r3, [sp, #4]
0x00006780:  eb000349  bl       #0x74ac

Linking TBs 0x7fc8dc82fc00 [0000660c] index 0 -> 0x7fc8dc82fd80 [00006770]
Trace 0: 0x7fc8dc82fd80 [00000000/00006770/0x10200040] __sfvwrite_r
----------------
IN: memmove
0x000074ac:  e1500001  cmp      r0, r1
0x000074b0:  9a00000a  bls      #0x74e0

Trace 0: 0x7fc8dc82ff00 [00000000/000074ac/0x10200040] memmove
----------------
IN: memmove
0x000074b4:  e0813002  add      r3, r1, r2
0x000074b8:  e1530000  cmp      r3, r0
0x000074bc:  9a000007  bls      #0x74e0

Linking TBs 0x7fc8dc82ff00 [000074ac] index 1 -> 0x7fc8dc830080 [000074b4]
Trace 0: 0x7fc8dc830080 [00000000/000074b4/0x10200040] memmove
----------------
IN: memmove
0x000074e0:  e352000f  cmp      r2, #0xf
0x000074e4:  8a00000b  bhi      #0x7518

Linking TBs 0x7fc8dc830080 [000074b4] index 0 -> 0x7fc8dc830200 [000074e0]
Trace 0: 0x7fc8dc830200 [00000000/000074e0/0x10200040] memmove
----------------
IN: memmove
0x00007518:  e1803001  orr      r3, r0, r1
0x0000751c:  e3130003  tst      r3, #3
0x00007520:  1a000034  bne      #0x75f8

Linking TBs 0x7fc8dc830200 [000074e0] index 0 -> 0x7fc8dc830380 [00007518]
Trace 0: 0x7fc8dc830380 [00000000/00007518/0x10200040] memmove
----------------
IN: memmove
0x00007524:  e92d4070  push     {r4, r5, r6, lr}
0x00007528:  e2425010  sub      r5, r2, #0x10
0x0000752c:  e1a05225  lsr      r5, r5, #4
0x00007530:  e2814020  add      r4, r1, #0x20
0x00007534:  e0844205  add      r4, r4, r5, lsl #4
0x00007538:  e2813010  add      r3, r1, #0x10
0x0000753c:  e280c010  add      ip, r0, #0x10
0x00007540:  e513e010  ldr      lr, [r3, #-0x10]
0x00007544:  e50ce010  str      lr, [ip, #-0x10]
0x00007548:  e513e00c  ldr      lr, [r3, #-0xc]
0x0000754c:  e50ce00c  str      lr, [ip, #-0xc]
0x00007550:  e513e008  ldr      lr, [r3, #-8]
0x00007554:  e50ce008  str      lr, [ip, #-8]
0x00007558:  e2833010  add      r3, r3, #0x10
0x0000755c:  e513e014  ldr      lr, [r3, #-0x14]
0x00007560:  e1530004  cmp      r3, r4
0x00007564:  e50ce004  str      lr, [ip, #-4]
0x00007568:  e28cc010  add      ip, ip, #0x10
0x0000756c:  1afffff3  bne      #0x7540

Linking TBs 0x7fc8dc830380 [00007518] index 1 -> 0x7fc8dc8304c0 [00007524]
Trace 0: 0x7fc8dc8304c0 [00000000/00007524/0x10200040] memmove
----------------
IN: memmove
0x00007570:  e285c001  add      ip, r5, #1
0x00007574:  e1a0c20c  lsl      ip, ip, #4
0x00007578:  e312000c  tst      r2, #0xc
0x0000757c:  e202e00f  and      lr, r2, #0xf
0x00007580:  e081100c  add      r1, r1, ip
0x00007584:  01a0200e  moveq    r2, lr
0x00007588:  e080c00c  add      ip, r0, ip
0x0000758c:  0a00000d  beq      #0x75c8

Linking TBs 0x7fc8dc8304c0 [00007524] index 1 -> 0x7fc8dc830a80 [00007570]
Trace 0: 0x7fc8dc830a80 [00000000/00007570/0x10200040] memmove
----------------
IN: memmove
0x00007590:  e1a04001  mov      r4, r1
0x00007594:  e24ee004  sub      lr, lr, #4
0x00007598:  e1a0e12e  lsr      lr, lr, #2
0x0000759c:  e08c610e  add      r6, ip, lr, lsl #2
0x000075a0:  e24c3004  sub      r3, ip, #4
0x000075a4:  e4945004  ldr      r5, [r4], #4
0x000075a8:  e5a35004  str      r5, [r3, #4]!
0x000075ac:  e1530006  cmp      r3, r6
0x000075b0:  1afffffb  bne      #0x75a4

Linking TBs 0x7fc8dc830a80 [00007570] index 1 -> 0x7fc8dc830c40 [00007590]
Trace 0: 0x7fc8dc830c40 [00000000/00007590/0x10200040] memmove
----------------
IN: memmove
0x000075a4:  e4945004  ldr      r5, [r4], #4
0x000075a8:  e5a35004  str      r5, [r3, #4]!
0x000075ac:  e1530006  cmp      r3, r6
0x000075b0:  1afffffb  bne      #0x75a4

Linking TBs 0x7fc8dc830c40 [00007590] index 0 -> 0x7fc8dc830ec0 [000075a4]
Trace 0: 0x7fc8dc830ec0 [00000000/000075a4/0x10200040] memmove
----------------
IN: memmove
0x000075b4:  e28ee001  add      lr, lr, #1
0x000075b8:  e1a0e10e  lsl      lr, lr, #2
0x000075bc:  e08cc00e  add      ip, ip, lr
0x000075c0:  e081100e  add      r1, r1, lr
0x000075c4:  e2022003  and      r2, r2, #3
0x000075c8:  e3520000  cmp      r2, #0
0x000075cc:  e2422001  sub      r2, r2, #1
0x000075d0:  12822001  addne    r2, r2, #1
0x000075d4:  10813002  addne    r3, r1, r2
0x000075d8:  124c2001  subne    r2, ip, #1
0x000075dc:  0a000003  beq      #0x75f0

Linking TBs 0x7fc8dc830ec0 [000075a4] index 1 -> 0x7fc8dc831100 [000075b4]
Trace 0: 0x7fc8dc831100 [00000000/000075b4/0x10200040] memmove
----------------
IN: memmove
0x000075f0:  e8bd4070  pop      {r4, r5, r6, lr}
0x000075f4:  e12fff1e  bx       lr

Linking TBs 0x7fc8dc831100 [000075b4] index 0 -> 0x7fc8dc831300 [000075f0]
Trace 0: 0x7fc8dc831300 [00000000/000075f0/0x10200040] memmove
----------------
IN: __sfvwrite_r
0x00006784:  e5941008  ldr      r1, [r4, #8]
0x00006788:  e5942000  ldr      r2, [r4]
0x0000678c:  e59d3004  ldr      r3, [sp, #4]
0x00006790:  e0411003  sub      r1, r1, r3
0x00006794:  e0823003  add      r3, r2, r3
0x00006798:  e5841008  str      r1, [r4, #8]
0x0000679c:  e5843000  str      r3, [r4]
0x000067a0:  eaffffa4  b        #0x6638

Trace 0: 0x7fc8dc831580 [00000000/00006784/0x10200040] __sfvwrite_r
----------------
IN: __sfvwrite_r
0x00006638:  e05aa005  subs     sl, sl, r5
0x0000663c:  13a00001  movne    r0, #1
0x00006640:  0a000044  beq      #0x6758

Linking TBs 0x7fc8dc831580 [00006784] index 0 -> 0x7fc8dc831840 [00006638]
Trace 0: 0x7fc8dc831840 [00000000/00006638/0x10200040] __sfvwrite_r
----------------
IN: __sfvwrite_r
0x00006644:  e5973008  ldr      r3, [r7, #8]
0x00006648:  e0433005  sub      r3, r3, r5
0x0000664c:  e3530000  cmp      r3, #0
0x00006650:  e08bb005  add      fp, fp, r5
0x00006654:  e0488005  sub      r8, r8, r5
0x00006658:  e5873008  str      r3, [r7, #8]
0x0000665c:  0affffbd  beq      #0x6558

Linking TBs 0x7fc8dc831840 [00006638] index 1 -> 0x7fc8dc8319c0 [00006644]
Trace 0: 0x7fc8dc8319c0 [00000000/00006644/0x10200040] __sfvwrite_r
Linking TBs 0x7fc8dc8319c0 [00006644] index 1 -> 0x7fc8dc82df80 [00006660]
Trace 0: 0x7fc8dc82df80 [00000000/00006660/0x10200040] __sfvwrite_r
Chain 0: 0x7fc8dc82e440 [00000000/00007280/0x10200040] memchr
Linking TBs 0x7fc8dc82e800 [000072d4] index 1 -> 0x7fc8dc82f0c0 [000072dc]
Trace 0: 0x7fc8dc82f0c0 [00000000/000072dc/0x10200040] memchr
----------------
IN: memchr
0x000072e4:  e5d03000  ldrb     r3, [r0]
0x000072e8:  e1530004  cmp      r3, r4
0x000072ec:  0a00000a  beq      #0x731c

Linking TBs 0x7fc8dc82f0c0 [000072dc] index 1 -> 0x7fc8dc831c00 [000072e4]
Trace 0: 0x7fc8dc831c00 [00000000/000072e4/0x10200040] memchr
Linking TBs 0x7fc8dc831c00 [000072e4] index 0 -> 0x7fc8dc82f300 [0000731c]
Trace 0: 0x7fc8dc82f300 [00000000/0000731c/0x10200040] memchr
Chain 0: 0x7fc8dc82f580 [00000000/00006694/0x10200040] __sfvwrite_r
----------------
IN: __sfvwrite_r
0x0000669c:  e2800001  add      r0, r0, #1
0x000066a0:  e040a00b  sub      sl, r0, fp
0x000066a4:  eaffffc9  b        #0x65d0

Linking TBs 0x7fc8dc82f580 [00006694] index 1 -> 0x7fc8dc831dc0 [0000669c]
Trace 0: 0x7fc8dc831dc0 [00000000/0000669c/0x10200040] __sfvwrite_r
----------------
IN: __sfvwrite_r
0x000065d0:  e1a0300a  mov      r3, sl
0x000065d4:  e1580003  cmp      r8, r3
0x000065d8:  31a03008  movlo    r3, r8
0x000065dc:  e5941014  ldr      r1, [r4, #0x14]
0x000065e0:  e5945008  ldr      r5, [r4, #8]
0x000065e4:  e5940000  ldr      r0, [r4]
0x000065e8:  e594c010  ldr      ip, [r4, #0x10]
0x000065ec:  e0815005  add      r5, r1, r5
0x000065f0:  e150000c  cmp      r0, ip
0x000065f4:  93a02000  movls    r2, #0
0x000065f8:  83a02001  movhi    r2, #1
0x000065fc:  e1530005  cmp      r3, r5
0x00006600:  d3a02000  movle    r2, #0
0x00006604:  e3520000  cmp      r2, #0
0x00006608:  1affffd6  bne      #0x6568

Linking TBs 0x7fc8dc831dc0 [0000669c] index 0 -> 0x7fc8dc831f00 [000065d0]
Trace 0: 0x7fc8dc831f00 [00000000/000065d0/0x10200040] __sfvwrite_r
Linking TBs 0x7fc8dc831f00 [000065d0] index 1 -> 0x7fc8dc82fc00 [0000660c]
Trace 0: 0x7fc8dc82fc00 [00000000/0000660c/0x10200040] __sfvwrite_r
Chain 0: 0x7fc8dc82ff00 [00000000/000074ac/0x10200040] memmove
----------------
IN: memmove
0x000074e8:  e3520000  cmp      r2, #0
0x000074ec:  e1a0c000  mov      ip, r0
0x000074f0:  e2422001  sub      r2, r2, #1
0x000074f4:  012fff1e  bxeq     lr

Linking TBs 0x7fc8dc830200 [000074e0] index 1 -> 0x7fc8dc832300 [000074e8]
Trace 0: 0x7fc8dc832300 [00000000/000074e8/0x10200040] memmove
----------------
IN: memmove
0x000074f8:  e2822001  add      r2, r2, #1
0x000074fc:  e0813002  add      r3, r1, r2
0x00007500:  e24c2001  sub      r2, ip, #1
0x00007504:  e4d1c001  ldrb     ip, [r1], #1
0x00007508:  e1510003  cmp      r1, r3
0x0000750c:  e5e2c001  strb     ip, [r2, #1]!
0x00007510:  1afffffb  bne      #0x7504

Linking TBs 0x7fc8dc832300 [000074e8] index 1 -> 0x7fc8dc832480 [000074f8]
Trace 0: 0x7fc8dc832480 [00000000/000074f8/0x10200040] memmove
----------------
IN: memmove
0x00007514:  e12fff1e  bx       lr

Linking TBs 0x7fc8dc832480 [000074f8] index 1 -> 0x7fc8dc8326c0 [00007514]
Trace 0: 0x7fc8dc8326c0 [00000000/00007514/0x10200040] memmove
Chain 0: 0x7fc8dc831580 [00000000/00006784/0x10200040] __sfvwrite_r
----------------
IN: __sfvwrite_r
0x00006758:  e1a01004  mov      r1, r4
0x0000675c:  e1a00009  mov      r0, sb
0x00006760:  ebfffd05  bl       #0x5b7c

Linking TBs 0x7fc8dc831840 [00006638] index 0 -> 0x7fc8dc832800 [00006758]
Trace 0: 0x7fc8dc832800 [00000000/00006758/0x10200040] __sfvwrite_r
----------------
IN: _fflush_r
0x00005b7c:  e92d4010  push     {r4, lr}
0x00005b80:  e2504000  subs     r4, r0, #0
0x00005b84:  e24dd008  sub      sp, sp, #8
0x00005b88:  0a000002  beq      #0x5b98

Trace 0: 0x7fc8dc832940 [00000000/00005b7c/0x10200040] _fflush_r
----------------
IN: _fflush_r
0x00005b8c:  e5943038  ldr      r3, [r4, #0x38]
0x00005b90:  e3530000  cmp      r3, #0
0x00005b94:  0a000005  beq      #0x5bb0

Linking TBs 0x7fc8dc832940 [00005b7c] index 1 -> 0x7fc8dc832b80 [00005b8c]
Trace 0: 0x7fc8dc832b80 [00000000/00005b8c/0x10200040] _fflush_r
----------------
IN: _fflush_r
0x00005b98:  e1d100fc  ldrsh    r0, [r1, #0xc]
0x00005b9c:  e3500000  cmp      r0, #0
0x00005ba0:  1a000008  bne      #0x5bc8

Linking TBs 0x7fc8dc832b80 [00005b8c] index 1 -> 0x7fc8dc832d40 [00005b98]
Trace 0: 0x7fc8dc832d40 [00000000/00005b98/0x10200040] _fflush_r
----------------
IN: _fflush_r
0x00005bc8:  e1a00004  mov      r0, r4
0x00005bcc:  e28dd008  add      sp, sp, #8
0x00005bd0:  e8bd4010  pop      {r4, lr}
0x00005bd4:  eaffff54  b        #0x592c

Linking TBs 0x7fc8dc832d40 [00005b98] index 0 -> 0x7fc8dc832f00 [00005bc8]
Trace 0: 0x7fc8dc832f00 [00000000/00005bc8/0x10200040] _fflush_r
----------------
IN: __sflush_r
0x0000592c:  e1d130fc  ldrsh    r3, [r1, #0xc]
0x00005930:  e1a02803  lsl      r2, r3, #0x10
0x00005934:  e1a02822  lsr      r2, r2, #0x10
0x00005938:  e3120008  tst      r2, #8
0x0000593c:  e92d41f0  push     {r4, r5, r6, r7, r8, lr}
0x00005940:  e1a04001  mov      r4, r1
0x00005944:  e1a08000  mov      r8, r0
0x00005948:  1a000047  bne      #0x5a6c

Linking TBs 0x7fc8dc832f00 [00005bc8] index 0 -> 0x7fc8dc8330c0 [0000592c]
Trace 0: 0x7fc8dc8330c0 [00000000/0000592c/0x10200040] __sflush_r
----------------
IN: __sflush_r
0x00005a6c:  e5916010  ldr      r6, [r1, #0x10]
0x00005a70:  e3560000  cmp      r6, #0
0x00005a74:  0a00001f  beq      #0x5af8

Linking TBs 0x7fc8dc8330c0 [0000592c] index 0 -> 0x7fc8dc833480 [00005a6c]
Trace 0: 0x7fc8dc833480 [00000000/00005a6c/0x10200040] __sflush_r
----------------
IN: __sflush_r
0x00005a78:  e3120003  tst      r2, #3
0x00005a7c:  13a03000  movne    r3, #0
0x00005a80:  e5915000  ldr      r5, [r1]
0x00005a84:  05913014  ldreq    r3, [r1, #0x14]
0x00005a88:  e0455006  sub      r5, r5, r6
0x00005a8c:  e3550000  cmp      r5, #0
0x00005a90:  e5816000  str      r6, [r1]
0x00005a94:  e5813008  str      r3, [r1, #8]
0x00005a98:  ca000003  bgt      #0x5aac

Linking TBs 0x7fc8dc833480 [00005a6c] index 1 -> 0x7fc8dc833640 [00005a78]
Trace 0: 0x7fc8dc833640 [00000000/00005a78/0x10200040] __sflush_r
----------------
IN: __sflush_r
0x00005aac:  e1a03005  mov      r3, r5
0x00005ab0:  e5947024  ldr      r7, [r4, #0x24]
0x00005ab4:  e1a02006  mov      r2, r6
0x00005ab8:  e594101c  ldr      r1, [r4, #0x1c]
0x00005abc:  e1a00008  mov      r0, r8
0x00005ac0:  e1a0e00f  mov      lr, pc
0x00005ac4:  e12fff17  bx       r7

Linking TBs 0x7fc8dc833640 [00005a78] index 0 -> 0x7fc8dc833940 [00005aac]
Trace 0: 0x7fc8dc833940 [00000000/00005aac/0x10200040] __sflush_r
----------------
IN: __swrite
0x000089f4:  e1d1c0fc  ldrsh    ip, [r1, #0xc]
0x000089f8:  e31c0c01  tst      ip, #0x100
0x000089fc:  e92d41f0  push     {r4, r5, r6, r7, r8, lr}
0x00008a00:  e1a04001  mov      r4, r1
0x00008a04:  e1a06002  mov      r6, r2
0x00008a08:  e1a07003  mov      r7, r3
0x00008a0c:  e1d110fe  ldrsh    r1, [r1, #0xe]
0x00008a10:  e1a05000  mov      r5, r0
0x00008a14:  1a000007  bne      #0x8a38

Trace 0: 0x7fc8dc833b40 [00000000/000089f4/0x10200040] __swrite
----------------
IN: __swrite
0x00008a18:  e3ccca01  bic      ip, ip, #0x1000
0x00008a1c:  e1c4c0bc  strh     ip, [r4, #0xc]
0x00008a20:  e1a03007  mov      r3, r7
0x00008a24:  e1a02006  mov      r2, r6
0x00008a28:  e1a00005  mov      r0, r5
0x00008a2c:  eb00050f  bl       #0x9e70

Linking TBs 0x7fc8dc833b40 [000089f4] index 1 -> 0x7fc8dc833f80 [00008a18]
Trace 0: 0x7fc8dc833f80 [00000000/00008a18/0x10200040] __swrite
----------------
IN: _write_r
0x00009e70:  e92d4070  push     {r4, r5, r6, lr}
0x00009e74:  e1a0e001  mov      lr, r1
0x00009e78:  e3a0c000  mov      ip, #0
0x00009e7c:  e59f4030  ldr      r4, [pc, #0x30]
0x00009e80:  e1a01002  mov      r1, r2
0x00009e84:  e1a05000  mov      r5, r0
0x00009e88:  e1a02003  mov      r2, r3
0x00009e8c:  e1a0000e  mov      r0, lr
0x00009e90:  e584c000  str      ip, [r4]
0x00009e94:  eb00045f  bl       #0xb018

Trace 0: 0x7fc8dc834140 [00000000/00009e70/0x10200040] _write_r
----------------
IN: _write
0x0000b018:  e92d40f0  push     {r4, r5, r6, r7, lr}
0x0000b01c:  e24dd014  sub      sp, sp, #0x14
0x0000b020:  e1a07001  mov      r7, r1
0x0000b024:  e1a06002  mov      r6, r2
0x0000b028:  ebffff47  bl       #0xad4c

Trace 0: 0x7fc8dc834480 [00000000/0000b018/0x10200040] _write
Chain 0: 0x7fc8dc816380 [00000000/0000ad4c/0x10200040] findslot
----------------
IN: _write
0x0000b02c:  e2505000  subs     r5, r0, #0
0x0000b030:  0a000029  beq      #0xb0dc

Trace 0: 0x7fc8dc834740 [00000000/0000b02c/0x10200040] _write
----------------
IN: _write
0x0000b034:  e5953000  ldr      r3, [r5]
0x0000b038:  e3a04005  mov      r4, #5
0x0000b03c:  e98d0088  stmib    sp, {r3, r7}
0x0000b040:  e58d600c  str      r6, [sp, #0xc]
0x0000b044:  e28d7004  add      r7, sp, #4
0x0000b048:  e1a00004  mov      r0, r4
0x0000b04c:  e1a01007  mov      r1, r7
0x0000b050:  ef123456  svc      #0x123456

Linking TBs 0x7fc8dc834740 [0000b02c] index 1 -> 0x7fc8dc8348c0 [0000b034]
Trace 0: 0x7fc8dc8348c0 [00000000/0000b034/0x10200040] _write
----------------
IN: _write
0x0000b054:  e1a04000  mov      r4, r0
0x0000b058:  e3740001  cmn      r4, #1
0x0000b05c:  0a00001b  beq      #0xb0d0

Trace 0: 0x7fc8dc834b40 [00000000/0000b054/0x10200040] _write
----------------
IN: _write
0x0000b060:  e3540000  cmp      r4, #0
0x0000b064:  ba000017  blt      #0xb0c8

Linking TBs 0x7fc8dc834b40 [0000b054] index 1 -> 0x7fc8dc834cc0 [0000b060]
Trace 0: 0x7fc8dc834cc0 [00000000/0000b060/0x10200040] _write
----------------
IN: _write
0x0000b068:  e5952004  ldr      r2, [r5, #4]
0x0000b06c:  e0460004  sub      r0, r6, r4
0x0000b070:  e1540006  cmp      r4, r6
0x0000b074:  e0822000  add      r2, r2, r0
0x0000b078:  e5852004  str      r2, [r5, #4]
0x0000b07c:  11a04000  movne    r4, r0
0x0000b080:  0a000003  beq      #0xb094

Linking TBs 0x7fc8dc834cc0 [0000b060] index 1 -> 0x7fc8dc834e00 [0000b068]
Trace 0: 0x7fc8dc834e00 [00000000/0000b068/0x10200040] _write
----------------
IN: _write
0x0000b084:  e1a00004  mov      r0, r4
0x0000b088:  e28dd014  add      sp, sp, #0x14
0x0000b08c:  e8bd40f0  pop      {r4, r5, r6, r7, lr}
0x0000b090:  e12fff1e  bx       lr

Linking TBs 0x7fc8dc834e00 [0000b068] index 1 -> 0x7fc8dc835080 [0000b084]
Trace 0: 0x7fc8dc835080 [00000000/0000b084/0x10200040] _write
----------------
IN: _write_r
0x00009e98:  e3700001  cmn      r0, #1
0x00009e9c:  1a000002  bne      #0x9eac

Trace 0: 0x7fc8dc835340 [00000000/00009e98/0x10200040] _write_r
----------------
IN: _write_r
0x00009eac:  e8bd4070  pop      {r4, r5, r6, lr}
0x00009eb0:  e12fff1e  bx       lr

Linking TBs 0x7fc8dc835340 [00009e98] index 0 -> 0x7fc8dc8354c0 [00009eac]
Trace 0: 0x7fc8dc8354c0 [00000000/00009eac/0x10200040] _write_r
----------------
IN: __swrite
0x00008a30:  e8bd41f0  pop      {r4, r5, r6, r7, r8, lr}
0x00008a34:  e12fff1e  bx       lr

Trace 0: 0x7fc8dc835740 [00000000/00008a30/0x10200040] __swrite
----------------
IN: __sflush_r
0x00005ac8:  e3500000  cmp      r0, #0
0x00005acc:  e0455000  sub      r5, r5, r0
0x00005ad0:  cafffff2  bgt      #0x5aa0

Trace 0: 0x7fc8dc835a40 [00000000/00005ac8/0x10200040] __sflush_r
----------------
IN: __sflush_r
0x00005aa0:  e3550000  cmp      r5, #0
0x00005aa4:  e0866000  add      r6, r6, r0
0x00005aa8:  da000012  ble      #0x5af8

Linking TBs 0x7fc8dc835a40 [00005ac8] index 0 -> 0x7fc8dc835bc0 [00005aa0]
Trace 0: 0x7fc8dc835bc0 [00000000/00005aa0/0x10200040] __sflush_r
----------------
IN: __sflush_r
0x00005af8:  e3a00000  mov      r0, #0
0x00005afc:  e8bd41f0  pop      {r4, r5, r6, r7, r8, lr}
0x00005b00:  e12fff1e  bx       lr

Linking TBs 0x7fc8dc835bc0 [00005aa0] index 0 -> 0x7fc8dc835d40 [00005af8]
Trace 0: 0x7fc8dc835d40 [00000000/00005af8/0x10200040] __sflush_r
----------------
IN: __sfvwrite_r
0x00006764:  e3500000  cmp      r0, #0
0x00006768:  0affffb5  beq      #0x6644

Trace 0: 0x7fc8dc836080 [00000000/00006764/0x10200040] __sfvwrite_r
Linking TBs 0x7fc8dc836080 [00006764] index 0 -> 0x7fc8dc8319c0 [00006644]
Trace 0: 0x7fc8dc8319c0 [00000000/00006644/0x10200040] __sfvwrite_r
----------------
IN: __sfvwrite_r
0x00006558:  e3a00000  mov      r0, #0
0x0000655c:  e28dd00c  add      sp, sp, #0xc
0x00006560:  e8bd4ff0  pop      {r4, r5, r6, r7, r8, sb, sl, fp, lr}
0x00006564:  e12fff1e  bx       lr

Linking TBs 0x7fc8dc8319c0 [00006644] index 0 -> 0x7fc8dc8361c0 [00006558]
Trace 0: 0x7fc8dc8361c0 [00000000/00006558/0x10200040] __sfvwrite_r
----------------
IN: _puts_r
0x00001cc4:  e3500000  cmp      r0, #0
0x00001cc8:  13e00000  mvnne    r0, #0
0x00001ccc:  03a0000a  moveq    r0, #0xa
0x00001cd0:  e28dd024  add      sp, sp, #0x24
0x00001cd4:  e8bd4030  pop      {r4, r5, lr}
0x00001cd8:  e12fff1e  bx       lr

Trace 0: 0x7fc8dc836600 [00000000/00001cc4/0x10200040] _puts_r
----------------
IN: main
0x00001918:  ebfffff0  bl       #0x18e0

Trace 0: 0x7fc8dc836880 [00000000/00001918/0x10200040] main
----------------
IN: entry_call_test
0x000018e0:  e92d4800  push     {fp, lr}
0x000018e4:  e28db004  add      fp, sp, #4
0x000018e8:  e59f0010  ldr      r0, [pc, #0x10]
0x000018ec:  eb0000fe  bl       #0x1cec

Linking TBs 0x7fc8dc836880 [00001918] index 0 -> 0x7fc8dc836980 [000018e0]
Trace 0: 0x7fc8dc836980 [00000000/000018e0/0x10200040] entry_call_test
Chain 0: 0x7fc8dc822380 [00000000/00001cec/0x10200040] puts
Chain 0: 0x7fc8dc822780 [00000000/00001c58/0x10200040] _puts_r
Chain 0: 0x7fc8dc822f80 [00000000/00006330/0x10200040] __sfvwrite_r
----------------
IN: __sfvwrite_r
0x00006370:  e218a002  ands     sl, r8, #2
0x00006374:  e5976000  ldr      r6, [r7]
0x00006378:  0a000029  beq      #0x6424

Linking TBs 0x7fc8dc823600 [00006364] index 1 -> 0x7fc8dc836bc0 [00006370]
Trace 0: 0x7fc8dc836bc0 [00000000/00006370/0x10200040] __sfvwrite_r
Chain 0: 0x7fc8dc82dd00 [00000000/00006424/0x10200040] __sfvwrite_r
Chain 0: 0x7fc8dc82e440 [00000000/00007280/0x10200040] memchr
----------------
IN: memchr
0x000072f0:  e080c00c  add      ip, r0, ip
0x000072f4:  e2802001  add      r2, r0, #1
0x000072f8:  ea000003  b        #0x730c

Linking TBs 0x7fc8dc831c00 [000072e4] index 1 -> 0x7fc8dc836d80 [000072f0]
Trace 0: 0x7fc8dc836d80 [00000000/000072f0/0x10200040] memchr
----------------
IN: memchr
0x0000730c:  e15c0002  cmp      ip, r2
0x00007310:  e1a00002  mov      r0, r2
0x00007314:  1afffff8  bne      #0x72fc

Linking TBs 0x7fc8dc836d80 [000072f0] index 0 -> 0x7fc8dc836ec0 [0000730c]
Trace 0: 0x7fc8dc836ec0 [00000000/0000730c/0x10200040] memchr
----------------
IN: memchr
0x000072fc:  e5d01000  ldrb     r1, [r0]
0x00007300:  e1510004  cmp      r1, r4
0x00007304:  e2822001  add      r2, r2, #1
0x00007308:  0a000003  beq      #0x731c

Linking TBs 0x7fc8dc836ec0 [0000730c] index 0 -> 0x7fc8dc837040 [000072fc]
Trace 0: 0x7fc8dc837040 [00000000/000072fc/0x10200040] memchr
Linking TBs 0x7fc8dc837040 [000072fc] index 1 -> 0x7fc8dc836ec0 [0000730c]
Trace 0: 0x7fc8dc836ec0 [00000000/0000730c/0x10200040] memchr
----------------
IN: memchr
0x00007318:  e3a00000  mov      r0, #0
0x0000731c:  e8bd4070  pop      {r4, r5, r6, lr}
0x00007320:  e12fff1e  bx       lr

Linking TBs 0x7fc8dc836ec0 [0000730c] index 1 -> 0x7fc8dc837200 [00007318]
Trace 0: 0x7fc8dc837200 [00000000/00007318/0x10200040] memchr
Chain 0: 0x7fc8dc82f580 [00000000/00006694/0x10200040] __sfvwrite_r
Chain 0: 0x7fc8dc82ff00 [00000000/000074ac/0x10200040] memmove
Linking TBs 0x7fc8dc830c40 [00007590] index 1 -> 0x7fc8dc831100 [000075b4]
Trace 0: 0x7fc8dc831100 [00000000/000075b4/0x10200040] memmove
----------------
IN: memmove
0x000075e0:  e4d1c001  ldrb     ip, [r1], #1
0x000075e4:  e1510003  cmp      r1, r3
0x000075e8:  e5e2c001  strb     ip, [r2, #1]!
0x000075ec:  1afffffb  bne      #0x75e0

Linking TBs 0x7fc8dc831100 [000075b4] index 1 -> 0x7fc8dc837480 [000075e0]
Trace 0: 0x7fc8dc837480 [00000000/000075e0/0x10200040] memmove
Linking TBs 0x7fc8dc837480 [000075e0] index 0 -> 0x7fc8dc837480 [000075e0]
Trace 0: 0x7fc8dc837480 [00000000/000075e0/0x10200040] memmove
Linking TBs 0x7fc8dc837480 [000075e0] index 1 -> 0x7fc8dc831300 [000075f0]
Trace 0: 0x7fc8dc831300 [00000000/000075f0/0x10200040] memmove
Chain 0: 0x7fc8dc831580 [00000000/00006784/0x10200040] __sfvwrite_r
Chain 0: 0x7fc8dc82e440 [00000000/00007280/0x10200040] memchr
Chain 0: 0x7fc8dc82f580 [00000000/00006694/0x10200040] __sfvwrite_r
Chain 0: 0x7fc8dc82ff00 [00000000/000074ac/0x10200040] memmove
Chain 0: 0x7fc8dc831580 [00000000/00006784/0x10200040] __sfvwrite_r
Chain 0: 0x7fc8dc832940 [00000000/00005b7c/0x10200040] _fflush_r
Chain 0: 0x7fc8dc833b40 [00000000/000089f4/0x10200040] __swrite
Chain 0: 0x7fc8dc834140 [00000000/00009e70/0x10200040] _write_r
Chain 0: 0x7fc8dc834480 [00000000/0000b018/0x10200040] _write
Chain 0: 0x7fc8dc816380 [00000000/0000ad4c/0x10200040] findslot
Chain 0: 0x7fc8dc834740 [00000000/0000b02c/0x10200040] _write
Trace 0: 0x7fc8dc834b40 [00000000/0000b054/0x10200040] _write
Chain 0: 0x7fc8dc835340 [00000000/00009e98/0x10200040] _write_r
Chain 0: 0x7fc8dc835740 [00000000/00008a30/0x10200040] __swrite
Chain 0: 0x7fc8dc835a40 [00000000/00005ac8/0x10200040] __sflush_r
Chain 0: 0x7fc8dc836080 [00000000/00006764/0x10200040] __sfvwrite_r
Chain 0: 0x7fc8dc836600 [00000000/00001cc4/0x10200040] _puts_r
----------------
IN: entry_call_test
0x000018f0:  e1a00000  mov      r0, r0
0x000018f4:  e24bd004  sub      sp, fp, #4
0x000018f8:  e8bd4800  pop      {fp, lr}
0x000018fc:  e12fff1e  bx       lr

Trace 0: 0x7fc8dc8376c0 [00000000/000018f0/0x10200040] entry_call_test
----------------
IN: main
0x0000191c:  e3a0300a  mov      r3, #0xa
0x00001920:  e50b3008  str      r3, [fp, #-8]
0x00001924:  e3a03014  mov      r3, #0x14
0x00001928:  e50b300c  str      r3, [fp, #-0xc]
0x0000192c:  e51b3008  ldr      r3, [fp, #-8]
0x00001930:  e2833001  add      r3, r3, #1
0x00001934:  e50b3008  str      r3, [fp, #-8]
0x00001938:  e51b200c  ldr      r2, [fp, #-0xc]
0x0000193c:  e51b1008  ldr      r1, [fp, #-8]
0x00001940:  e59f0058  ldr      r0, [pc, #0x58]
0x00001944:  eb0000ad  bl       #0x1c00

Trace 0: 0x7fc8dc8378c0 [00000000/0000191c/0x10200040] main
----------------
IN: printf
0x00001c00:  e92d000f  push     {r0, r1, r2, r3}
0x00001c04:  e52de004  str      lr, [sp, #-4]!
0x00001c08:  e59f302c  ldr      r3, [pc, #0x2c]
0x00001c0c:  e24dd00c  sub      sp, sp, #0xc
0x00001c10:  e5930000  ldr      r0, [r3]
0x00001c14:  e28dc014  add      ip, sp, #0x14
0x00001c18:  e5901008  ldr      r1, [r0, #8]
0x00001c1c:  e1a0300c  mov      r3, ip
0x00001c20:  e59d2010  ldr      r2, [sp, #0x10]
0x00001c24:  e58dc004  str      ip, [sp, #4]
0x00001c28:  eb00004c  bl       #0x1d60

Trace 0: 0x7fc8dc837c40 [00000000/00001c00/0x10200040] printf
----------------
IN: _vfprintf_r
0x00001d60:  e92d4ff0  push     {r4, r5, r6, r7, r8, sb, sl, fp, lr}
0x00001d64:  e24ddf41  sub      sp, sp, #0x104
0x00001d68:  e1a04003  mov      r4, r3
0x00001d6c:  e58d1024  str      r1, [sp, #0x24]
0x00001d70:  e1a0a002  mov      sl, r2
0x00001d74:  e1a05000  mov      r5, r0
0x00001d78:  e58d0030  str      r0, [sp, #0x30]
0x00001d7c:  eb0012e4  bl       #0x6914

Linking TBs 0x7fc8dc837c40 [00001c00] index 0 -> 0x7fc8dc8380c0 [00001d60]
Trace 0: 0x7fc8dc8380c0 [00000000/00001d60/0x10200040] _vfprintf_r
----------------
IN: _localeconv_r
0x00006914:  e59f0000  ldr      r0, [pc]
0x00006918:  e12fff1e  bx       lr

Trace 0: 0x7fc8dc838580 [00000000/00006914/0x10200040] _localeconv_r
----------------
IN: _vfprintf_r
0x00001d80:  e5903000  ldr      r3, [r0]
0x00001d84:  e1a00003  mov      r0, r3
0x00001d88:  e58d305c  str      r3, [sp, #0x5c]
0x00001d8c:  ebffffdb  bl       #0x1d00

Trace 0: 0x7fc8dc838700 [00000000/00001d80/0x10200040] _vfprintf_r
Linking TBs 0x7fc8dc838700 [00001d80] index 0 -> 0x7fc8dc814b00 [00001d00]
Trace 0: 0x7fc8dc814b00 [00000000/00001d00/0x10200040] strlen
Linking TBs 0x7fc8dc814b00 [00001d00] index 1 -> 0x7fc8dc815000 [00001d44]
Trace 0: 0x7fc8dc815000 [00000000/00001d44/0x10200040] strlen
----------------
IN: _vfprintf_r
0x00001d90:  e3550000  cmp      r5, #0
0x00001d94:  e58d0054  str      r0, [sp, #0x54]
0x00001d98:  e58d4034  str      r4, [sp, #0x34]
0x00001d9c:  0a000002  beq      #0x1dac

Trace 0: 0x7fc8dc8388c0 [00000000/00001d90/0x10200040] _vfprintf_r
----------------
IN: _vfprintf_r
0x00001da0:  e5953038  ldr      r3, [r5, #0x38]
0x00001da4:  e3530000  cmp      r3, #0
0x00001da8:  0a000292  beq      #0x27f8

Linking TBs 0x7fc8dc8388c0 [00001d90] index 1 -> 0x7fc8dc838ac0 [00001da0]
Trace 0: 0x7fc8dc838ac0 [00000000/00001da0/0x10200040] _vfprintf_r
----------------
IN: _vfprintf_r
0x00001dac:  e59d0024  ldr      r0, [sp, #0x24]
0x00001db0:  e1d020fc  ldrsh    r2, [r0, #0xc]
0x00001db4:  e1a03802  lsl      r3, r2, #0x10
0x00001db8:  e1a03823  lsr      r3, r3, #0x10
0x00001dbc:  e3130a02  tst      r3, #0x2000
0x00001dc0:  1a000006  bne      #0x1de0

Linking TBs 0x7fc8dc838ac0 [00001da0] index 1 -> 0x7fc8dc838c80 [00001dac]
Trace 0: 0x7fc8dc838c80 [00000000/00001dac/0x10200040] _vfprintf_r
----------------
IN: _vfprintf_r
0x00001de0:  e3130008  tst      r3, #8
0x00001de4:  0a00009d  beq      #0x2060

Linking TBs 0x7fc8dc838c80 [00001dac] index 0 -> 0x7fc8dc838e80 [00001de0]
Trace 0: 0x7fc8dc838e80 [00000000/00001de0/0x10200040] _vfprintf_r
----------------
IN: _vfprintf_r
0x00001de8:  e59d2024  ldr      r2, [sp, #0x24]
0x00001dec:  e5922010  ldr      r2, [r2, #0x10]
0x00001df0:  e3520000  cmp      r2, #0
0x00001df4:  0a000099  beq      #0x2060

Linking TBs 0x7fc8dc838e80 [00001de0] index 1 -> 0x7fc8dc838fc0 [00001de8]
Trace 0: 0x7fc8dc838fc0 [00000000/00001de8/0x10200040] _vfprintf_r
----------------
IN: _vfprintf_r
0x00001df8:  e203301a  and      r3, r3, #0x1a
0x00001dfc:  e353000a  cmp      r3, #0xa
0x00001e00:  0a0000a0  beq      #0x2088

Linking TBs 0x7fc8dc838fc0 [00001de8] index 1 -> 0x7fc8dc8391c0 [00001df8]
Trace 0: 0x7fc8dc8391c0 [00000000/00001df8/0x10200040] _vfprintf_r
----------------
IN: _vfprintf_r
0x00001e04:  e3a03000  mov      r3, #0
0x00001e08:  e3a01000  mov      r1, #0
0x00001e0c:  e3a02000  mov      r2, #0
0x00001e10:  e1a0b00a  mov      fp, sl
0x00001e14:  e58d3050  str      r3, [sp, #0x50]
0x00001e18:  e58d3058  str      r3, [sp, #0x58]
0x00001e1c:  e58d3060  str      r3, [sp, #0x60]
0x00001e20:  e58d3028  str      r3, [sp, #0x28]
0x00001e24:  e28d80c0  add      r8, sp, #0xc0
0x00001e28:  e58d3094  str      r3, [sp, #0x94]
0x00001e2c:  e58d3090  str      r3, [sp, #0x90]
0x00001e30:  e58d1048  str      r1, [sp, #0x48]
0x00001e34:  e58d204c  str      r2, [sp, #0x4c]
0x00001e38:  e59f3fd8  ldr      r3, [pc, #0xfd8]
0x00001e3c:  e58d808c  str      r8, [sp, #0x8c]
0x00001e40:  e2839010  add      sb, r3, #0x10
0x00001e44:  e5db3000  ldrb     r3, [fp]
0x00001e48:  e3530000  cmp      r3, #0
0x00001e4c:  13530025  cmpne    r3, #0x25
0x00001e50:  0a00012f  beq      #0x2314

Linking TBs 0x7fc8dc8391c0 [00001df8] index 1 -> 0x7fc8dc839340 [00001e04]
Trace 0: 0x7fc8dc839340 [00000000/00001e04/0x10200040] _vfprintf_r
----------------
IN: _vfprintf_r
0x00001e54:  e1a0500b  mov      r5, fp
0x00001e58:  ea000000  b        #0x1e60

Linking TBs 0x7fc8dc839340 [00001e04] index 1 -> 0x7fc8dc839880 [00001e54]
Trace 0: 0x7fc8dc839880 [00000000/00001e54/0x10200040] _vfprintf_r
----------------
IN: _vfprintf_r
0x00001e60:  e5d53001  ldrb     r3, [r5, #1]
0x00001e64:  e3530000  cmp      r3, #0
0x00001e68:  13530025  cmpne    r3, #0x25
0x00001e6c:  e2854001  add      r4, r5, #1
0x00001e70:  1afffff9  bne      #0x1e5c

Linking TBs 0x7fc8dc839880 [00001e54] index 0 -> 0x7fc8dc839980 [00001e60]
Trace 0: 0x7fc8dc839980 [00000000/00001e60/0x10200040] _vfprintf_r
----------------
IN: _vfprintf_r
0x00001e5c:  e1a05004  mov      r5, r4
0x00001e60:  e5d53001  ldrb     r3, [r5, #1]
0x00001e64:  e3530000  cmp      r3, #0
0x00001e68:  13530025  cmpne    r3, #0x25
0x00001e6c:  e2854001  add      r4, r5, #1
0x00001e70:  1afffff9  bne      #0x1e5c

Linking TBs 0x7fc8dc839980 [00001e60] index 0 -> 0x7fc8dc839b80 [00001e5c]
Trace 0: 0x7fc8dc839b80 [00000000/00001e5c/0x10200040] _vfprintf_r
Linking TBs 0x7fc8dc839b80 [00001e5c] index 0 -> 0x7fc8dc839b80 [00001e5c]
Trace 0: 0x7fc8dc839b80 [00000000/00001e5c/0x10200040] _vfprintf_r
----------------
IN: _vfprintf_r
0x00001e74:  e054600b  subs     r6, r4, fp
0x00001e78:  0a00000e  beq      #0x1eb8

Linking TBs 0x7fc8dc839b80 [00001e5c] index 1 -> 0x7fc8dc839d80 [00001e74]
Trace 0: 0x7fc8dc839d80 [00000000/00001e74/0x10200040] _vfprintf_r
----------------
IN: _vfprintf_r
0x00001e7c:  e59d3090  ldr      r3, [sp, #0x90]
0x00001e80:  e59d2094  ldr      r2, [sp, #0x94]
0x00001e84:  e2833001  add      r3, r3, #1
0x00001e88:  e3530007  cmp      r3, #7
0x00001e8c:  e0822006  add      r2, r2, r6
0x00001e90:  e588b000  str      fp, [r8]
0x00001e94:  e5886004  str      r6, [r8, #4]
0x00001e98:  e58d3090  str      r3, [sp, #0x90]
0x00001e9c:  e58d2094  str      r2, [sp, #0x94]
0x00001ea0:  d2888008  addle    r8, r8, #8
0x00001ea4:  ca000082  bgt      #0x20b4

Linking TBs 0x7fc8dc839d80 [00001e74] index 1 -> 0x7fc8dc839f00 [00001e7c]
Trace 0: 0x7fc8dc839f00 [00000000/00001e7c/0x10200040] _vfprintf_r
----------------
IN: _vfprintf_r
0x00001ea8:  e59d3028  ldr      r3, [sp, #0x28]
0x00001eac:  e0833006  add      r3, r3, r6
0x00001eb0:  e58d3028  str      r3, [sp, #0x28]
0x00001eb4:  e5d53001  ldrb     r3, [r5, #1]
0x00001eb8:  e3530000  cmp      r3, #0
0x00001ebc:  0a000084  beq      #0x20d4

Linking TBs 0x7fc8dc839f00 [00001e7c] index 1 -> 0x7fc8dc83a300 [00001ea8]
Trace 0: 0x7fc8dc83a300 [00000000/00001ea8/0x10200040] _vfprintf_r
----------------
IN: _vfprintf_r
0x00001ec0:  e3e05000  mvn      r5, #0
0x00001ec4:  e3a02000  mov      r2, #0
0x00001ec8:  e1a00005  mov      r0, r5
0x00001ecc:  e1a03002  mov      r3, r2
0x00001ed0:  e5cd206f  strb     r2, [sp, #0x6f]
0x00001ed4:  e1a01002  mov      r1, r2
0x00001ed8:  e58d202c  str      r2, [sp, #0x2c]
0x00001edc:  e1a0a002  mov      sl, r2
0x00001ee0:  e5d42001  ldrb     r2, [r4, #1]
0x00001ee4:  e284b001  add      fp, r4, #1
0x00001ee8:  e28bb001  add      fp, fp, #1
0x00001eec:  e242c020  sub      ip, r2, #0x20
0x00001ef0:  e35c0058  cmp      ip, #0x58
0x00001ef4:  979ff10c  ldrls    pc, [pc, ip, lsl #2]

Linking TBs 0x7fc8dc83a300 [00001ea8] index 1 -> 0x7fc8dc83a580 [00001ec0]
Trace 0: 0x7fc8dc83a580 [00000000/00001ec0/0x10200040] _vfprintf_r
----------------
IN: _vfprintf_r
0x000026a8:  e3530000  cmp      r3, #0
0x000026ac:  15cd106f  strbne   r1, [sp, #0x6f]
0x000026b0:  e31a0020  tst      sl, #0x20
0x000026b4:  e58d2040  str      r2, [sp, #0x40]
0x000026b8:  0a000024  beq      #0x2750

Trace 0: 0x7fc8dc83a8c0 [00000000/000026a8/0x10200040] _vfprintf_r
----------------
IN: _vfprintf_r
0x00002750:  e59d3034  ldr      r3, [sp, #0x34]
0x00002754:  e4936004  ldr      r6, [r3], #4
0x00002758:  e31a0010  tst      sl, #0x10
0x0000275c:  e58d3034  str      r3, [sp, #0x34]
0x00002760:  1a0002c6  bne      #0x3280

Linking TBs 0x7fc8dc83a8c0 [000026a8] index 0 -> 0x7fc8dc83ab00 [00002750]
Trace 0: 0x7fc8dc83ab00 [00000000/00002750/0x10200040] _vfprintf_r
----------------
IN: _vfprintf_r
0x00002764:  e31a0040  tst      sl, #0x40
0x00002768:  0a0002c4  beq      #0x3280

Linking TBs 0x7fc8dc83ab00 [00002750] index 1 -> 0x7fc8dc83ad80 [00002764]
Trace 0: 0x7fc8dc83ad80 [00000000/00002764/0x10200040] _vfprintf_r
----------------
IN: _vfprintf_r
0x00003280:  e1a07fc6  asr      r7, r6, #0x1f
0x00003284:  e1a02006  mov      r2, r6
0x00003288:  e1a03007  mov      r3, r7
0x0000328c:  e3520000  cmp      r2, #0
0x00003290:  e2d33000  sbcs     r3, r3, #0
0x00003294:  aafffd13  bge      #0x26e8

Trace 0: 0x7fc8dc83aec0 [00000000/00003280/0x10200040] _vfprintf_r
----------------
IN: _vfprintf_r
0x000026e8:  e3750001  cmn      r5, #1
0x000026ec:  e5dd406f  ldrb     r4, [sp, #0x6f]
0x000026f0:  0a000054  beq      #0x2848

Trace 0: 0x7fc8dc83b080 [00000000/000026e8/0x10200040] _vfprintf_r
----------------
IN: _vfprintf_r
0x00002848:  e3570000  cmp      r7, #0
0x0000284c:  03560009  cmpeq    r6, #9
0x00002850:  8a00037b  bhi      #0x3644

Trace 0: 0x7fc8dc83b240 [00000000/00002848/0x10200040] _vfprintf_r
----------------
IN: _vfprintf_r
0x00003644:  e28d30c0  add      r3, sp, #0xc0
0x00003648:  e58db01c  str      fp, [sp, #0x1c]
0x0000364c:  e1a0b004  mov      fp, r4
0x00003650:  e1a04003  mov      r4, r3
0x00003654:  ea000001  b        #0x3660

Trace 0: 0x7fc8dc83b400 [00000000/00003644/0x10200040] _vfprintf_r
----------------
IN: _vfprintf_r
0x00003660:  e3a0200a  mov      r2, #0xa
0x00003664:  e3a03000  mov      r3, #0
0x00003668:  e1a00006  mov      r0, r6
0x0000366c:  e1a01007  mov      r1, r7
0x00003670:  eb002520  bl       #0xcaf8

Linking TBs 0x7fc8dc83b400 [00003644] index 0 -> 0x7fc8dc83b580 [00003660]
Trace 0: 0x7fc8dc83b580 [00000000/00003660/0x10200040] _vfprintf_r
----------------
IN: __aeabi_uldivmod
0x0000caf8:  e3530000  cmp      r3, #0
0x0000cafc:  03520000  cmpeq    r2, #0
0x0000cb00:  1a000004  bne      #0xcb18

Trace 0: 0x7fc8dc83b6c0 [00000000/0000caf8/0x10200040] __aeabi_uldivmod
----------------
IN: __aeabi_uldivmod
0x0000cb18:  e24dd008  sub      sp, sp, #8
0x0000cb1c:  e92d6000  push     {sp, lr}
0x0000cb20:  eb000003  bl       #0xcb34

Linking TBs 0x7fc8dc83b6c0 [0000caf8] index 0 -> 0x7fc8dc83b840 [0000cb18]
Trace 0: 0x7fc8dc83b840 [00000000/0000cb18/0x10200040] __aeabi_uldivmod
----------------
IN: __udivmoddi4
0x0000cb34:  e1510003  cmp      r1, r3
0x0000cb38:  01500002  cmpeq    r0, r2
0x0000cb3c:  e92d47f0  push     {r4, r5, r6, r7, r8, sb, sl, lr}
0x0000cb40:  e1a04000  mov      r4, r0
0x0000cb44:  33a00000  movlo    r0, #0
0x0000cb48:  e1a05001  mov      r5, r1
0x0000cb4c:  e59d8020  ldr      r8, [sp, #0x20]
0x0000cb50:  31a01000  movlo    r1, r0
0x0000cb54:  3a00003e  blo      #0xcc54

Linking TBs 0x7fc8dc83b840 [0000cb18] index 0 -> 0x7fc8dc83ba00 [0000cb34]
Trace 0: 0x7fc8dc83ba00 [00000000/0000cb34/0x10200040] __udivmoddi4
----------------
IN: __udivmoddi4
0x0000cb58:  e1a01003  mov      r1, r3
0x0000cb5c:  e1a00002  mov      r0, r2
0x0000cb60:  e1a06002  mov      r6, r2
0x0000cb64:  e1a07003  mov      r7, r3
0x0000cb68:  eb00003d  bl       #0xcc64

Linking TBs 0x7fc8dc83ba00 [0000cb34] index 1 -> 0x7fc8dc83bf00 [0000cb58]
Trace 0: 0x7fc8dc83bf00 [00000000/0000cb58/0x10200040] __udivmoddi4
----------------
IN: __clzdi2
0x0000cc64:  e92d4010  push     {r4, lr}
0x0000cc68:  e3510000  cmp      r1, #0
0x0000cc6c:  1a000002  bne      #0xcc7c

Trace 0: 0x7fc8dc83c040 [00000000/0000cc64/0x10200040] __clzdi2
----------------
IN: __clzdi2
0x0000cc70:  eb000005  bl       #0xcc8c

Linking TBs 0x7fc8dc83c040 [0000cc64] index 1 -> 0x7fc8dc83c240 [0000cc70]
Trace 0: 0x7fc8dc83c240 [00000000/0000cc70/0x10200040] __clzdi2
----------------
IN: __clzsi2
0x0000cc8c:  e3a0101c  mov      r1, #0x1c
0x0000cc90:  e3500801  cmp      r0, #0x10000
0x0000cc94:  21a00820  lsrhs    r0, r0, #0x10
0x0000cc98:  22411010  subhs    r1, r1, #0x10
0x0000cc9c:  e3500c01  cmp      r0, #0x100
0x0000cca0:  21a00420  lsrhs    r0, r0, #8
0x0000cca4:  22411008  subhs    r1, r1, #8
0x0000cca8:  e3500010  cmp      r0, #0x10
0x0000ccac:  21a00220  lsrhs    r0, r0, #4
0x0000ccb0:  22411004  subhs    r1, r1, #4
0x0000ccb4:  e28f2008  add      r2, pc, #8
0x0000ccb8:  e7d20000  ldrb     r0, [r2, r0]
0x0000ccbc:  e0800001  add      r0, r0, r1
0x0000ccc0:  e12fff1e  bx       lr

Linking TBs 0x7fc8dc83c240 [0000cc70] index 0 -> 0x7fc8dc83c340 [0000cc8c]
Trace 0: 0x7fc8dc83c340 [00000000/0000cc8c/0x10200040] __clzsi2
----------------
IN: __clzdi2
0x0000cc74:  e2800020  add      r0, r0, #0x20
0x0000cc78:  ea000001  b        #0xcc84

Trace 0: 0x7fc8dc83c640 [00000000/0000cc74/0x10200040] __clzdi2
----------------
IN: __clzdi2
0x0000cc84:  e8bd4010  pop      {r4, lr}
0x0000cc88:  e12fff1e  bx       lr

Linking TBs 0x7fc8dc83c640 [0000cc74] index 0 -> 0x7fc8dc83c780 [0000cc84]
Trace 0: 0x7fc8dc83c780 [00000000/0000cc84/0x10200040] __clzdi2
----------------
IN: __udivmoddi4
0x0000cb6c:  e1a01005  mov      r1, r5
0x0000cb70:  e1a09000  mov      sb, r0
0x0000cb74:  e1a00004  mov      r0, r4
0x0000cb78:  eb000039  bl       #0xcc64

Trace 0: 0x7fc8dc83c940 [00000000/0000cb6c/0x10200040] __udivmoddi4
Chain 0: 0x7fc8dc83c040 [00000000/0000cc64/0x10200040] __clzdi2
Chain 0: 0x7fc8dc83c640 [00000000/0000cc74/0x10200040] __clzdi2
----------------
IN: __udivmoddi4
0x0000cb7c:  e049c000  sub      ip, sb, r0
0x0000cb80:  e24c9020  sub      sb, ip, #0x20
0x0000cb84:  e1a03c17  lsl      r3, r7, ip
0x0000cb88:  e1833916  orr      r3, r3, r6, lsl sb
0x0000cb8c:  e26ca020  rsb      sl, ip, #0x20
0x0000cb90:  e1833a36  orr      r3, r3, r6, lsr sl
0x0000cb94:  e1550003  cmp      r5, r3
0x0000cb98:  e1a02c16  lsl      r2, r6, ip
0x0000cb9c:  01540002  cmpeq    r4, r2
0x0000cba0:  33a00000  movlo    r0, #0
0x0000cba4:  31a01000  movlo    r1, r0
0x0000cba8:  3a000005  blo      #0xcbc4

Trace 0: 0x7fc8dc83ca80 [00000000/0000cb7c/0x10200040] __udivmoddi4
----------------
IN: __udivmoddi4
0x0000cbac:  e3a00001  mov      r0, #1
0x0000cbb0:  e0544002  subs     r4, r4, r2
0x0000cbb4:  e1a01910  lsl      r1, r0, sb
0x0000cbb8:  e1811a30  orr      r1, r1, r0, lsr sl
0x0000cbbc:  e0c55003  sbc      r5, r5, r3
0x0000cbc0:  e1a00c10  lsl      r0, r0, ip
0x0000cbc4:  e35c0000  cmp      ip, #0
0x0000cbc8:  0a000021  beq      #0xcc54

Linking TBs 0x7fc8dc83ca80 [0000cb7c] index 1 -> 0x7fc8dc83cd40 [0000cbac]
Trace 0: 0x7fc8dc83cd40 [00000000/0000cbac/0x10200040] __udivmoddi4
----------------
IN: __udivmoddi4
0x0000cc54:  e3580000  cmp      r8, #0
0x0000cc58:  18880030  stmne    r8, {r4, r5}
0x0000cc5c:  e8bd47f0  pop      {r4, r5, r6, r7, r8, sb, sl, lr}
0x0000cc60:  e12fff1e  bx       lr

Trace 0: 0x7fc8dc83cf40 [00000000/0000cc54/0x10200040] __udivmoddi4
----------------
IN: __aeabi_uldivmod
0x0000cb24:  e59de004  ldr      lr, [sp, #4]
0x0000cb28:  e28dd008  add      sp, sp, #8
0x0000cb2c:  e8bd000c  pop      {r2, r3}
0x0000cb30:  e12fff1e  bx       lr

Trace 0: 0x7fc8dc83d3c0 [00000000/0000cb24/0x10200040] __aeabi_uldivmod
----------------
IN: _vfprintf_r
0x00003674:  e2822030  add      r2, r2, #0x30
0x00003678:  e5642001  strb     r2, [r4, #-1]!
0x0000367c:  e3a03000  mov      r3, #0
0x00003680:  e3a0200a  mov      r2, #0xa
0x00003684:  e1a00006  mov      r0, r6
0x00003688:  e1a01007  mov      r1, r7
0x0000368c:  eb002519  bl       #0xcaf8

Trace 0: 0x7fc8dc83d600 [00000000/00003674/0x10200040] _vfprintf_r
Chain 0: 0x7fc8dc83b6c0 [00000000/0000caf8/0x10200040] __aeabi_uldivmod
Chain 0: 0x7fc8dc83c040 [00000000/0000cc64/0x10200040] __clzdi2
Chain 0: 0x7fc8dc83c640 [00000000/0000cc74/0x10200040] __clzdi2
Chain 0: 0x7fc8dc83c940 [00000000/0000cb6c/0x10200040] __udivmoddi4
Chain 0: 0x7fc8dc83c040 [00000000/0000cc64/0x10200040] __clzdi2
Chain 0: 0x7fc8dc83c640 [00000000/0000cc74/0x10200040] __clzdi2
Chain 0: 0x7fc8dc83ca80 [00000000/0000cb7c/0x10200040] __udivmoddi4
Chain 0: 0x7fc8dc83cf40 [00000000/0000cc54/0x10200040] __udivmoddi4
Chain 0: 0x7fc8dc83d3c0 [00000000/0000cb24/0x10200040] __aeabi_uldivmod
----------------
IN: _vfprintf_r
0x00003690:  e3570000  cmp      r7, #0
0x00003694:  03560009  cmpeq    r6, #9
0x00003698:  8affffee  bhi      #0x3658

Trace 0: 0x7fc8dc83d7c0 [00000000/00003690/0x10200040] _vfprintf_r
----------------
IN: _vfprintf_r
0x00003658:  e1a06000  mov      r6, r0
0x0000365c:  e1a07001  mov      r7, r1
0x00003660:  e3a0200a  mov      r2, #0xa
0x00003664:  e3a03000  mov      r3, #0
0x00003668:  e1a00006  mov      r0, r6
0x0000366c:  e1a01007  mov      r1, r7
0x00003670:  eb002520  bl       #0xcaf8

Linking TBs 0x7fc8dc83d7c0 [00003690] index 0 -> 0x7fc8dc83d980 [00003658]
Trace 0: 0x7fc8dc83d980 [00000000/00003658/0x10200040] _vfprintf_r
Chain 0: 0x7fc8dc83b6c0 [00000000/0000caf8/0x10200040] __aeabi_uldivmod
Chain 0: 0x7fc8dc83cf40 [00000000/0000cc54/0x10200040] __udivmoddi4
Chain 0: 0x7fc8dc83d3c0 [00000000/0000cb24/0x10200040] __aeabi_uldivmod
Chain 0: 0x7fc8dc83d600 [00000000/00003674/0x10200040] _vfprintf_r
Chain 0: 0x7fc8dc83b6c0 [00000000/0000caf8/0x10200040] __aeabi_uldivmod
Chain 0: 0x7fc8dc83cf40 [00000000/0000cc54/0x10200040] __udivmoddi4
Chain 0: 0x7fc8dc83d3c0 [00000000/0000cb24/0x10200040] __aeabi_uldivmod
Chain 0: 0x7fc8dc83d7c0 [00000000/00003690/0x10200040] _vfprintf_r
----------------
IN: _vfprintf_r
0x0000369c:  e1a03004  mov      r3, r4
0x000036a0:  e28d20c0  add      r2, sp, #0xc0
0x000036a4:  e58d403c  str      r4, [sp, #0x3c]
0x000036a8:  e58da020  str      sl, [sp, #0x20]
0x000036ac:  e1a0400b  mov      r4, fp
0x000036b0:  e0427003  sub      r7, r2, r3
0x000036b4:  e59db01c  ldr      fp, [sp, #0x1c]
0x000036b8:  eafffab3  b        #0x218c

Linking TBs 0x7fc8dc83d7c0 [00003690] index 1 -> 0x7fc8dc83dac0 [0000369c]
Trace 0: 0x7fc8dc83dac0 [00000000/0000369c/0x10200040] _vfprintf_r
----------------
IN: _vfprintf_r
0x0000218c:  e1550007  cmp      r5, r7
0x00002190:  a1a03005  movge    r3, r5
0x00002194:  b1a03007  movlt    r3, r7
0x00002198:  e58d301c  str      r3, [sp, #0x1c]
0x0000219c:  e3a03000  mov      r3, #0
0x000021a0:  e58d3044  str      r3, [sp, #0x44]
0x000021a4:  e3540000  cmp      r4, #0
0x000021a8:  0a000002  beq      #0x21b8

Trace 0: 0x7fc8dc83dd00 [00000000/0000218c/0x10200040] _vfprintf_r
----------------
IN: _vfprintf_r
0x000021b8:  e59d3020  ldr      r3, [sp, #0x20]
0x000021bc:  e2133002  ands     r3, r3, #2
0x000021c0:  159d201c  ldrne    r2, [sp, #0x1c]
0x000021c4:  12822002  addne    r2, r2, #2
0x000021c8:  158d201c  strne    r2, [sp, #0x1c]
0x000021cc:  e59d2020  ldr      r2, [sp, #0x20]
0x000021d0:  e2122084  ands     r2, r2, #0x84
0x000021d4:  e58d2038  str      r2, [sp, #0x38]
0x000021d8:  e59d4094  ldr      r4, [sp, #0x94]
0x000021dc:  1a000004  bne      #0x21f4

Linking TBs 0x7fc8dc83dd00 [0000218c] index 0 -> 0x7fc8dc83df80 [000021b8]
Trace 0: 0x7fc8dc83df80 [00000000/000021b8/0x10200040] _vfprintf_r
----------------
IN: _vfprintf_r
0x000021e0:  e59d202c  ldr      r2, [sp, #0x2c]
0x000021e4:  e59d101c  ldr      r1, [sp, #0x1c]
0x000021e8:  e0426001  sub      r6, r2, r1
0x000021ec:  e3560000  cmp      r6, #0
0x000021f0:  ca0002cb  bgt      #0x2d24

Linking TBs 0x7fc8dc83df80 [000021b8] index 1 -> 0x7fc8dc83e300 [000021e0]
Trace 0: 0x7fc8dc83e300 [00000000/000021e0/0x10200040] _vfprintf_r
----------------
IN: _vfprintf_r
0x000021f4:  e5dd206f  ldrb     r2, [sp, #0x6f]
0x000021f8:  e3520000  cmp      r2, #0
0x000021fc:  0a00000b  beq      #0x2230

Linking TBs 0x7fc8dc83e300 [000021e0] index 1 -> 0x7fc8dc83e500 [000021f4]
Trace 0: 0x7fc8dc83e500 [00000000/000021f4/0x10200040] _vfprintf_r
----------------
IN: _vfprintf_r
0x00002230:  e3530000  cmp      r3, #0
0x00002234:  0a00000b  beq      #0x2268

Linking TBs 0x7fc8dc83e500 [000021f4] index 0 -> 0x7fc8dc83e6c0 [00002230]
Trace 0: 0x7fc8dc83e6c0 [00000000/00002230/0x10200040] _vfprintf_r
----------------
IN: _vfprintf_r
0x00002268:  e59d3038  ldr      r3, [sp, #0x38]
0x0000226c:  e3530080  cmp      r3, #0x80
0x00002270:  0a0001c5  beq      #0x298c

Linking TBs 0x7fc8dc83e6c0 [00002230] index 0 -> 0x7fc8dc83e800 [00002268]
Trace 0: 0x7fc8dc83e800 [00000000/00002268/0x10200040] _vfprintf_r
----------------
IN: _vfprintf_r
0x00002274:  e0455007  sub      r5, r5, r7
0x00002278:  e3550000  cmp      r5, #0
0x0000227c:  ca0001ff  bgt      #0x2a80

Linking TBs 0x7fc8dc83e800 [00002268] index 1 -> 0x7fc8dc83e9c0 [00002274]
Trace 0: 0x7fc8dc83e9c0 [00000000/00002274/0x10200040] _vfprintf_r
----------------
IN: _vfprintf_r
0x00002280:  e59d3020  ldr      r3, [sp, #0x20]
0x00002284:  e3130c01  tst      r3, #0x100
0x00002288:  1a000178  bne      #0x2870

Linking TBs 0x7fc8dc83e9c0 [00002274] index 1 -> 0x7fc8dc83eb40 [00002280]
Trace 0: 0x7fc8dc83eb40 [00000000/00002280/0x10200040] _vfprintf_r
----------------
IN: _vfprintf_r
0x0000228c:  e59d3090  ldr      r3, [sp, #0x90]
0x00002290:  e59d203c  ldr      r2, [sp, #0x3c]
0x00002294:  e2833001  add      r3, r3, #1
0x00002298:  e0844007  add      r4, r4, r7
0x0000229c:  e3530007  cmp      r3, #7
0x000022a0:  e58d4094  str      r4, [sp, #0x94]
0x000022a4:  e8880084  stm      r8, {r2, r7}
0x000022a8:  e58d3090  str      r3, [sp, #0x90]
0x000022ac:  ca00030c  bgt      #0x2ee4

Linking TBs 0x7fc8dc83eb40 [00002280] index 1 -> 0x7fc8dc83ed00 [0000228c]
Trace 0: 0x7fc8dc83ed00 [00000000/0000228c/0x10200040] _vfprintf_r
----------------
IN: _vfprintf_r
0x000022b0:  e2888008  add      r8, r8, #8
0x000022b4:  e59d3020  ldr      r3, [sp, #0x20]
0x000022b8:  e3130004  tst      r3, #4
0x000022bc:  0a000004  beq      #0x22d4

Linking TBs 0x7fc8dc83ed00 [0000228c] index 1 -> 0x7fc8dc83f0c0 [000022b0]
Trace 0: 0x7fc8dc83f0c0 [00000000/000022b0/0x10200040] _vfprintf_r
----------------
IN: _vfprintf_r
0x000022d4:  e59d3028  ldr      r3, [sp, #0x28]
0x000022d8:  e59d202c  ldr      r2, [sp, #0x2c]
0x000022dc:  e59d101c  ldr      r1, [sp, #0x1c]
0x000022e0:  e1520001  cmp      r2, r1
0x000022e4:  a0833002  addge    r3, r3, r2
0x000022e8:  b0833001  addlt    r3, r3, r1
0x000022ec:  e3540000  cmp      r4, #0
0x000022f0:  e58d3028  str      r3, [sp, #0x28]
0x000022f4:  1a00023f  bne      #0x2bf8

Linking TBs 0x7fc8dc83f0c0 [000022b0] index 0 -> 0x7fc8dc83f280 [000022d4]
Trace 0: 0x7fc8dc83f280 [00000000/000022d4/0x10200040] _vfprintf_r
----------------
IN: _vfprintf_r
0x00002bf8:  e28d208c  add      r2, sp, #0x8c
0x00002bfc:  e59d1024  ldr      r1, [sp, #0x24]

Trace 0: 0x7fc8dc83f5c0 [00000000/00002bf8/0x10200040] _vfprintf_r
----------------
IN: _vfprintf_r
0x00002c00:  e59d0030  ldr      r0, [sp, #0x30]
0x00002c04:  eb0017ce  bl       #0x8b44

Trace 0: 0x7fc8dc83f740 [00000000/00002c00/0x10200040] _vfprintf_r
----------------
IN: __sprint_r
0x00008b44:  e5923008  ldr      r3, [r2, #8]
0x00008b48:  e3530000  cmp      r3, #0
0x00008b4c:  1affffd0  bne      #0x8a94

Trace 0: 0x7fc8dc83f8c0 [00000000/00008b44/0x10200040] __sprint_r
----------------
IN: __sprint_r.part.0
0x00008a94:  e92d4ff8  push     {r3, r4, r5, r6, r7, r8, sb, sl, fp, lr}
0x00008a98:  e5913064  ldr      r3, [r1, #0x64]
0x00008a9c:  e3130a02  tst      r3, #0x2000
0x00008aa0:  e1a0b002  mov      fp, r2
0x00008aa4:  0a000024  beq      #0x8b3c

Linking TBs 0x7fc8dc83f8c0 [00008b44] index 0 -> 0x7fc8dc83fa80 [00008a94]
Trace 0: 0x7fc8dc83fa80 [00000000/00008a94/0x10200040] __sprint_r.part.0
----------------
IN: __sprint_r.part.0
0x00008b3c:  ebfff5fb  bl       #0x6330

Linking TBs 0x7fc8dc83fa80 [00008a94] index 0 -> 0x7fc8dc83ff80 [00008b3c]
Trace 0: 0x7fc8dc83ff80 [00000000/00008b3c/0x10200040] __sprint_r.part.0
Chain 0: 0x7fc8dc822f80 [00000000/00006330/0x10200040] __sfvwrite_r
Chain 0: 0x7fc8dc82dd00 [00000000/00006424/0x10200040] __sfvwrite_r
Chain 0: 0x7fc8dc82e440 [00000000/00007280/0x10200040] memchr
Chain 0: 0x7fc8dc82f580 [00000000/00006694/0x10200040] __sfvwrite_r
Chain 0: 0x7fc8dc82ff00 [00000000/000074ac/0x10200040] memmove
----------------
IN: memmove
0x00007504:  e4d1c001  ldrb     ip, [r1], #1
0x00007508:  e1510003  cmp      r1, r3
0x0000750c:  e5e2c001  strb     ip, [r2, #1]!
0x00007510:  1afffffb  bne      #0x7504

Linking TBs 0x7fc8dc832480 [000074f8] index 0 -> 0x7fc8dc840080 [00007504]
Trace 0: 0x7fc8dc840080 [00000000/00007504/0x10200040] memmove
Linking TBs 0x7fc8dc840080 [00007504] index 0 -> 0x7fc8dc840080 [00007504]
Trace 0: 0x7fc8dc840080 [00000000/00007504/0x10200040] memmove
Linking TBs 0x7fc8dc840080 [00007504] index 1 -> 0x7fc8dc8326c0 [00007514]
Trace 0: 0x7fc8dc8326c0 [00000000/00007514/0x10200040] memmove
Chain 0: 0x7fc8dc831580 [00000000/00006784/0x10200040] __sfvwrite_r
Chain 0: 0x7fc8dc82e440 [00000000/00007280/0x10200040] memchr
----------------
IN: memchr
0x00007290:  e3520000  cmp      r2, #0
0x00007294:  e242c001  sub      ip, r2, #1
0x00007298:  0a00001e  beq      #0x7318

Linking TBs 0x7fc8dc82e440 [00007280] index 1 -> 0x7fc8dc8402c0 [00007290]
Trace 0: 0x7fc8dc8402c0 [00000000/00007290/0x10200040] memchr
----------------
IN: memchr
0x0000729c:  e5d03000  ldrb     r3, [r0]
0x000072a0:  e1530004  cmp      r3, r4
0x000072a4:  0a00001c  beq      #0x731c

Linking TBs 0x7fc8dc8402c0 [00007290] index 1 -> 0x7fc8dc840440 [0000729c]
Trace 0: 0x7fc8dc840440 [00000000/0000729c/0x10200040] memchr
----------------
IN: memchr
0x000072a8:  e2803001  add      r3, r0, #1
0x000072ac:  ea000005  b        #0x72c8

Linking TBs 0x7fc8dc840440 [0000729c] index 1 -> 0x7fc8dc840600 [000072a8]
Trace 0: 0x7fc8dc840600 [00000000/000072a8/0x10200040] memchr
----------------
IN: memchr
0x000072c8:  e3130003  tst      r3, #3
0x000072cc:  e1a00003  mov      r0, r3
0x000072d0:  1afffff6  bne      #0x72b0

Linking TBs 0x7fc8dc840600 [000072a8] index 0 -> 0x7fc8dc840700 [000072c8]
Trace 0: 0x7fc8dc840700 [00000000/000072c8/0x10200040] memchr
----------------
IN: memchr
0x000072b0:  e25cc001  subs     ip, ip, #1
0x000072b4:  3a000017  blo      #0x7318

Linking TBs 0x7fc8dc840700 [000072c8] index 0 -> 0x7fc8dc840840 [000072b0]
Trace 0: 0x7fc8dc840840 [00000000/000072b0/0x10200040] memchr
----------------
IN: memchr
0x000072b8:  e5d02000  ldrb     r2, [r0]
0x000072bc:  e1520004  cmp      r2, r4
0x000072c0:  e2833001  add      r3, r3, #1
0x000072c4:  0a000014  beq      #0x731c

Linking TBs 0x7fc8dc840840 [000072b0] index 1 -> 0x7fc8dc8409c0 [000072b8]
Trace 0: 0x7fc8dc8409c0 [00000000/000072b8/0x10200040] memchr
Linking TBs 0x7fc8dc8409c0 [000072b8] index 1 -> 0x7fc8dc840700 [000072c8]
Trace 0: 0x7fc8dc840700 [00000000/000072c8/0x10200040] memchr
Linking TBs 0x7fc8dc840700 [000072c8] index 1 -> 0x7fc8dc82e800 [000072d4]
Trace 0: 0x7fc8dc82e800 [00000000/000072d4/0x10200040] memchr
Chain 0: 0x7fc8dc82f580 [00000000/00006694/0x10200040] __sfvwrite_r
Chain 0: 0x7fc8dc82ff00 [00000000/000074ac/0x10200040] memmove
Linking TBs 0x7fc8dc82ff00 [000074ac] index 0 -> 0x7fc8dc830200 [000074e0]
Trace 0: 0x7fc8dc830200 [00000000/000074e0/0x10200040] memmove
Chain 0: 0x7fc8dc831580 [00000000/00006784/0x10200040] __sfvwrite_r
----------------
IN: __sprint_r.part.0
0x00008b40:  eaffffef  b        #0x8b04

Trace 0: 0x7fc8dc840b80 [00000000/00008b40/0x10200040] __sprint_r.part.0
----------------
IN: __sprint_r.part.0
0x00008b04:  e3a03000  mov      r3, #0
0x00008b08:  e58b3008  str      r3, [fp, #8]
0x00008b0c:  e58b3004  str      r3, [fp, #4]
0x00008b10:  e8bd4ff8  pop      {r3, r4, r5, r6, r7, r8, sb, sl, fp, lr}
0x00008b14:  e12fff1e  bx       lr

Linking TBs 0x7fc8dc840b80 [00008b40] index 0 -> 0x7fc8dc840c80 [00008b04]
Trace 0: 0x7fc8dc840c80 [00000000/00008b04/0x10200040] __sprint_r.part.0
----------------
IN: _vfprintf_r
0x00002c08:  e3500000  cmp      r0, #0
0x00002c0c:  0afffdb9  beq      #0x22f8

Trace 0: 0x7fc8dc841180 [00000000/00002c08/0x10200040] _vfprintf_r
----------------
IN: _vfprintf_r
0x000022f8:  e3a03000  mov      r3, #0
0x000022fc:  e58d3090  str      r3, [sp, #0x90]
0x00002300:  e5db3000  ldrb     r3, [fp]
0x00002304:  e3530000  cmp      r3, #0
0x00002308:  13530025  cmpne    r3, #0x25
0x0000230c:  e28d80c0  add      r8, sp, #0xc0
0x00002310:  1afffecf  bne      #0x1e54

Trace 0: 0x7fc8dc841300 [00000000/000022f8/0x10200040] _vfprintf_r
Chain 0: 0x7fc8dc839880 [00000000/00001e54/0x10200040] _vfprintf_r
Chain 0: 0x7fc8dc83a8c0 [00000000/000026a8/0x10200040] _vfprintf_r
Chain 0: 0x7fc8dc83aec0 [00000000/00003280/0x10200040] _vfprintf_r
Chain 0: 0x7fc8dc83b080 [00000000/000026e8/0x10200040] _vfprintf_r
Chain 0: 0x7fc8dc83b240 [00000000/00002848/0x10200040] _vfprintf_r
Chain 0: 0x7fc8dc83b400 [00000000/00003644/0x10200040] _vfprintf_r
Chain 0: 0x7fc8dc83b6c0 [00000000/0000caf8/0x10200040] __aeabi_uldivmod
Chain 0: 0x7fc8dc83c040 [00000000/0000cc64/0x10200040] __clzdi2
Chain 0: 0x7fc8dc83c640 [00000000/0000cc74/0x10200040] __clzdi2
Chain 0: 0x7fc8dc83c940 [00000000/0000cb6c/0x10200040] __udivmoddi4
Chain 0: 0x7fc8dc83c040 [00000000/0000cc64/0x10200040] __clzdi2
Chain 0: 0x7fc8dc83c640 [00000000/0000cc74/0x10200040] __clzdi2
Chain 0: 0x7fc8dc83ca80 [00000000/0000cb7c/0x10200040] __udivmoddi4
----------------
IN: __udivmoddi4
0x0000cbcc:  e1a060a2  lsr      r6, r2, #1
0x0000cbd0:  e1a0e00c  mov      lr, ip
0x0000cbd4:  e1866f83  orr      r6, r6, r3, lsl #31
0x0000cbd8:  e1a070a3  lsr      r7, r3, #1
0x0000cbdc:  ea000007  b        #0xcc00

Linking TBs 0x7fc8dc83cd40 [0000cbac] index 1 -> 0x7fc8dc841580 [0000cbcc]
Trace 0: 0x7fc8dc841580 [00000000/0000cbcc/0x10200040] __udivmoddi4
----------------
IN: __udivmoddi4
0x0000cc00:  e1550007  cmp      r5, r7
0x0000cc04:  01540006  cmpeq    r4, r6
0x0000cc08:  2afffff4  bhs      #0xcbe0

Trace 0: 0x7fc8dc8416c0 [00000000/0000cc00/0x10200040] __udivmoddi4
----------------
IN: __udivmoddi4
0x0000cc0c:  e0944004  adds     r4, r4, r4
0x0000cc10:  e0a55005  adc      r5, r5, r5
0x0000cc14:  e25ee001  subs     lr, lr, #1
0x0000cc18:  1afffff8  bne      #0xcc00

Linking TBs 0x7fc8dc8416c0 [0000cc00] index 1 -> 0x7fc8dc841880 [0000cc0c]
Trace 0: 0x7fc8dc841880 [00000000/0000cc0c/0x10200040] __udivmoddi4
----------------
IN: __udivmoddi4
0x0000cc1c:  e1a03c34  lsr      r3, r4, ip
0x0000cc20:  e1833a15  orr      r3, r3, r5, lsl sl
0x0000cc24:  e1833935  orr      r3, r3, r5, lsr sb
0x0000cc28:  e0900004  adds     r0, r0, r4
0x0000cc2c:  e1a04003  mov      r4, r3
0x0000cc30:  e1a02c35  lsr      r2, r5, ip
0x0000cc34:  e0a11005  adc      r1, r1, r5
0x0000cc38:  e1a05002  mov      r5, r2
0x0000cc3c:  e1a03c12  lsl      r3, r2, ip
0x0000cc40:  e1833914  orr      r3, r3, r4, lsl sb
0x0000cc44:  e1a0cc14  lsl      ip, r4, ip
0x0000cc48:  e050000c  subs     r0, r0, ip
0x0000cc4c:  e1833a34  orr      r3, r3, r4, lsr sl
0x0000cc50:  e0c11003  sbc      r1, r1, r3
0x0000cc54:  e3580000  cmp      r8, #0
0x0000cc58:  18880030  stmne    r8, {r4, r5}
0x0000cc5c:  e8bd47f0  pop      {r4, r5, r6, r7, r8, sb, sl, lr}
0x0000cc60:  e12fff1e  bx       lr

Linking TBs 0x7fc8dc841880 [0000cc0c] index 1 -> 0x7fc8dc841a00 [0000cc1c]
Trace 0: 0x7fc8dc841a00 [00000000/0000cc1c/0x10200040] __udivmoddi4
Chain 0: 0x7fc8dc83d3c0 [00000000/0000cb24/0x10200040] __aeabi_uldivmod
Chain 0: 0x7fc8dc83d600 [00000000/00003674/0x10200040] _vfprintf_r
Chain 0: 0x7fc8dc83b6c0 [00000000/0000caf8/0x10200040] __aeabi_uldivmod
Chain 0: 0x7fc8dc83c040 [00000000/0000cc64/0x10200040] __clzdi2
Chain 0: 0x7fc8dc83c640 [00000000/0000cc74/0x10200040] __clzdi2
Chain 0: 0x7fc8dc83c940 [00000000/0000cb6c/0x10200040] __udivmoddi4
Chain 0: 0x7fc8dc83c040 [00000000/0000cc64/0x10200040] __clzdi2
Chain 0: 0x7fc8dc83c640 [00000000/0000cc74/0x10200040] __clzdi2
Chain 0: 0x7fc8dc83ca80 [00000000/0000cb7c/0x10200040] __udivmoddi4
Chain 0: 0x7fc8dc8416c0 [00000000/0000cc00/0x10200040] __udivmoddi4
Chain 0: 0x7fc8dc83d3c0 [00000000/0000cb24/0x10200040] __aeabi_uldivmod
Chain 0: 0x7fc8dc83d7c0 [00000000/00003690/0x10200040] _vfprintf_r
Chain 0: 0x7fc8dc83b6c0 [00000000/0000caf8/0x10200040] __aeabi_uldivmod
Chain 0: 0x7fc8dc83cf40 [00000000/0000cc54/0x10200040] __udivmoddi4
Chain 0: 0x7fc8dc83d3c0 [00000000/0000cb24/0x10200040] __aeabi_uldivmod
Chain 0: 0x7fc8dc83d600 [00000000/00003674/0x10200040] _vfprintf_r
Chain 0: 0x7fc8dc83b6c0 [00000000/0000caf8/0x10200040] __aeabi_uldivmod
Chain 0: 0x7fc8dc83cf40 [00000000/0000cc54/0x10200040] __udivmoddi4
Chain 0: 0x7fc8dc83d3c0 [00000000/0000cb24/0x10200040] __aeabi_uldivmod
Chain 0: 0x7fc8dc83d7c0 [00000000/00003690/0x10200040] _vfprintf_r
Chain 0: 0x7fc8dc83dd00 [00000000/0000218c/0x10200040] _vfprintf_r
Chain 0: 0x7fc8dc83f5c0 [00000000/00002bf8/0x10200040] _vfprintf_r
Chain 0: 0x7fc8dc83f740 [00000000/00002c00/0x10200040] _vfprintf_r
Chain 0: 0x7fc8dc83f8c0 [00000000/00008b44/0x10200040] __sprint_r
Chain 0: 0x7fc8dc822f80 [00000000/00006330/0x10200040] __sfvwrite_r
Chain 0: 0x7fc8dc82dd00 [00000000/00006424/0x10200040] __sfvwrite_r
Chain 0: 0x7fc8dc82e440 [00000000/00007280/0x10200040] memchr
Chain 0: 0x7fc8dc82f580 [00000000/00006694/0x10200040] __sfvwrite_r
Chain 0: 0x7fc8dc82ff00 [00000000/000074ac/0x10200040] memmove
Chain 0: 0x7fc8dc831580 [00000000/00006784/0x10200040] __sfvwrite_r
Chain 0: 0x7fc8dc82e440 [00000000/00007280/0x10200040] memchr
Chain 0: 0x7fc8dc82f580 [00000000/00006694/0x10200040] __sfvwrite_r
Chain 0: 0x7fc8dc82ff00 [00000000/000074ac/0x10200040] memmove
Chain 0: 0x7fc8dc831580 [00000000/00006784/0x10200040] __sfvwrite_r
Chain 0: 0x7fc8dc840b80 [00000000/00008b40/0x10200040] __sprint_r.part.0
Chain 0: 0x7fc8dc841180 [00000000/00002c08/0x10200040] _vfprintf_r
Chain 0: 0x7fc8dc841300 [00000000/000022f8/0x10200040] _vfprintf_r
Chain 0: 0x7fc8dc839880 [00000000/00001e54/0x10200040] _vfprintf_r
Linking TBs 0x7fc8dc839980 [00001e60] index 1 -> 0x7fc8dc839d80 [00001e74]
Trace 0: 0x7fc8dc839d80 [00000000/00001e74/0x10200040] _vfprintf_r
----------------
IN: _vfprintf_r
0x000020d4:  e59d3094  ldr      r3, [sp, #0x94]
0x000020d8:  e3530000  cmp      r3, #0
0x000020dc:  159d0030  ldrne    r0, [sp, #0x30]
0x000020e0:  128d208c  addne    r2, sp, #0x8c
0x000020e4:  159d1024  ldrne    r1, [sp, #0x24]
0x000020e8:  1b001a95  blne     #0x8b44

Trace 0: 0x7fc8dc842000 [00000000/000020d4/0x10200040] _vfprintf_r
Chain 0: 0x7fc8dc83f8c0 [00000000/00008b44/0x10200040] __sprint_r
Chain 0: 0x7fc8dc822f80 [00000000/00006330/0x10200040] __sfvwrite_r
Chain 0: 0x7fc8dc82dd00 [00000000/00006424/0x10200040] __sfvwrite_r
Chain 0: 0x7fc8dc82e440 [00000000/00007280/0x10200040] memchr
Linking TBs 0x7fc8dc840440 [0000729c] index 0 -> 0x7fc8dc82f300 [0000731c]
Trace 0: 0x7fc8dc82f300 [00000000/0000731c/0x10200040] memchr
Chain 0: 0x7fc8dc82f580 [00000000/00006694/0x10200040] __sfvwrite_r
Chain 0: 0x7fc8dc82ff00 [00000000/000074ac/0x10200040] memmove
Chain 0: 0x7fc8dc831580 [00000000/00006784/0x10200040] __sfvwrite_r
Chain 0: 0x7fc8dc832940 [00000000/00005b7c/0x10200040] _fflush_r
Chain 0: 0x7fc8dc833b40 [00000000/000089f4/0x10200040] __swrite
Chain 0: 0x7fc8dc834140 [00000000/00009e70/0x10200040] _write_r
Chain 0: 0x7fc8dc834480 [00000000/0000b018/0x10200040] _write
Chain 0: 0x7fc8dc816380 [00000000/0000ad4c/0x10200040] findslot
Chain 0: 0x7fc8dc834740 [00000000/0000b02c/0x10200040] _write
Trace 0: 0x7fc8dc834b40 [00000000/0000b054/0x10200040] _write
Chain 0: 0x7fc8dc835340 [00000000/00009e98/0x10200040] _write_r
Chain 0: 0x7fc8dc835740 [00000000/00008a30/0x10200040] __swrite
Chain 0: 0x7fc8dc835a40 [00000000/00005ac8/0x10200040] __sflush_r
Chain 0: 0x7fc8dc836080 [00000000/00006764/0x10200040] __sfvwrite_r
Chain 0: 0x7fc8dc840b80 [00000000/00008b40/0x10200040] __sprint_r.part.0
----------------
IN: _vfprintf_r
0x000020ec:  e59d3024  ldr      r3, [sp, #0x24]
0x000020f0:  e1d330bc  ldrh     r3, [r3, #0xc]
0x000020f4:  e3130040  tst      r3, #0x40
0x000020f8:  1a0006c2  bne      #0x3c08

Trace 0: 0x7fc8dc842280 [00000000/000020ec/0x10200040] _vfprintf_r
----------------
IN: _vfprintf_r
0x000020fc:  e59d0028  ldr      r0, [sp, #0x28]
0x00002100:  e28ddf41  add      sp, sp, #0x104
0x00002104:  e8bd4ff0  pop      {r4, r5, r6, r7, r8, sb, sl, fp, lr}
0x00002108:  e12fff1e  bx       lr

Linking TBs 0x7fc8dc842280 [000020ec] index 1 -> 0x7fc8dc842480 [000020fc]
Trace 0: 0x7fc8dc842480 [00000000/000020fc/0x10200040] _vfprintf_r
----------------
IN: printf
0x00001c2c:  e28dd00c  add      sp, sp, #0xc
0x00001c30:  e49de004  pop      {lr}
0x00001c34:  e28dd010  add      sp, sp, #0x10
0x00001c38:  e12fff1e  bx       lr

Trace 0: 0x7fc8dc842900 [00000000/00001c2c/0x10200040] printf
----------------
IN: main
0x00001948:  e59f0054  ldr      r0, [pc, #0x54]
0x0000194c:  ebffff47  bl       #0x1670

Trace 0: 0x7fc8dc842a80 [00000000/00001948/0x10200040] main
----------------
IN: virtio_init
0x00001670:  e92d4800  push     {fp, lr}
0x00001674:  e28db004  add      fp, sp, #4
0x00001678:  e24dd010  sub      sp, sp, #0x10
0x0000167c:  e50b0010  str      r0, [fp, #-0x10]
0x00001680:  e51b3010  ldr      r3, [fp, #-0x10]
0x00001684:  e50b3008  str      r3, [fp, #-8]
0x00001688:  e51b3008  ldr      r3, [fp, #-8]
0x0000168c:  e2833004  add      r3, r3, #4
0x00001690:  e1a00003  mov      r0, r3
0x00001694:  ebfffc16  bl       #0x6f4

Trace 0: 0x7fc8dc842c00 [00000000/00001670/0x10200040] virtio_init
----------------
IN: volatile_read32
0x000006f4:  e52db004  str      fp, [sp, #-4]!
0x000006f8:  e28db000  add      fp, sp, #0
0x000006fc:  e24dd00c  sub      sp, sp, #0xc
0x00000700:  e50b0008  str      r0, [fp, #-8]
0x00000704:  e51b3008  ldr      r3, [fp, #-8]
0x00000708:  e5933000  ldr      r3, [r3]
0x0000070c:  e1a00003  mov      r0, r3
0x00000710:  e28bd000  add      sp, fp, #0
0x00000714:  e49db004  pop      {fp}
0x00000718:  e12fff1e  bx       lr

Trace 0: 0x7fc8dc842f40 [00000000/000006f4/0x10200040] volatile_read32
----------------
IN: virtio_init
0x00001698:  e50b000c  str      r0, [fp, #-0xc]
0x0000169c:  e51b300c  ldr      r3, [fp, #-0xc]
0x000016a0:  e3530001  cmp      r3, #1
0x000016a4:  1a000002  bne      #0x16b4

Trace 0: 0x7fc8dc843240 [00000000/00001698/0x10200040] virtio_init
----------------
IN: virtio_init
0x000016b4:  e51b300c  ldr      r3, [fp, #-0xc]
0x000016b8:  e3530002  cmp      r3, #2
0x000016bc:  1a000002  bne      #0x16cc

Linking TBs 0x7fc8dc843240 [00001698] index 0 -> 0x7fc8dc843480 [000016b4]
Trace 0: 0x7fc8dc843480 [00000000/000016b4/0x10200040] virtio_init
----------------
IN: virtio_init
0x000016c0:  e51b0008  ldr      r0, [fp, #-8]
0x000016c4:  ebffff62  bl       #0x1454

Linking TBs 0x7fc8dc843480 [000016b4] index 1 -> 0x7fc8dc843640 [000016c0]
Trace 0: 0x7fc8dc843640 [00000000/000016c0/0x10200040] virtio_init
----------------
IN: print_v1_info
0x00001454:  e92d4800  push     {fp, lr}
0x00001458:  e28db004  add      fp, sp, #4
0x0000145c:  e24dd020  sub      sp, sp, #0x20
0x00001460:  e50b0020  str      r0, [fp, #-0x20]
0x00001464:  e51b3020  ldr      r3, [fp, #-0x20]
0x00001468:  e1a00003  mov      r0, r3
0x0000146c:  ebfffca0  bl       #0x6f4

Linking TBs 0x7fc8dc843640 [000016c0] index 0 -> 0x7fc8dc8437c0 [00001454]
Trace 0: 0x7fc8dc8437c0 [00000000/00001454/0x10200040] print_v1_info
Chain 0: 0x7fc8dc842f40 [00000000/000006f4/0x10200040] volatile_read32
----------------
IN: print_v1_info
0x00001470:  e50b0008  str      r0, [fp, #-8]
0x00001474:  e51b3008  ldr      r3, [fp, #-8]
0x00001478:  e20330ff  and      r3, r3, #0xff
0x0000147c:  e54b3014  strb     r3, [fp, #-0x14]
0x00001480:  e51b3008  ldr      r3, [fp, #-8]
0x00001484:  e1a03423  lsr      r3, r3, #8
0x00001488:  e20330ff  and      r3, r3, #0xff
0x0000148c:  e54b3013  strb     r3, [fp, #-0x13]
0x00001490:  e51b3008  ldr      r3, [fp, #-8]
0x00001494:  e1a03823  lsr      r3, r3, #0x10
0x00001498:  e20330ff  and      r3, r3, #0xff
0x0000149c:  e54b3012  strb     r3, [fp, #-0x12]
0x000014a0:  e51b3008  ldr      r3, [fp, #-8]
0x000014a4:  e1a03c23  lsr      r3, r3, #0x18
0x000014a8:  e20330ff  and      r3, r3, #0xff
0x000014ac:  e54b3011  strb     r3, [fp, #-0x11]
0x000014b0:  e3a03000  mov      r3, #0
0x000014b4:  e54b3010  strb     r3, [fp, #-0x10]
0x000014b8:  e24b3014  sub      r3, fp, #0x14
0x000014bc:  e1a02003  mov      r2, r3
0x000014c0:  e51b1008  ldr      r1, [fp, #-8]
0x000014c4:  e59f017c  ldr      r0, [pc, #0x17c]
0x000014c8:  eb0001cc  bl       #0x1c00

Trace 0: 0x7fc8dc843a40 [00000000/00001470/0x10200040] print_v1_info
Chain 0: 0x7fc8dc837c40 [00000000/00001c00/0x10200040] printf
Chain 0: 0x7fc8dc838580 [00000000/00006914/0x10200040] _localeconv_r
Chain 0: 0x7fc8dc838700 [00000000/00001d80/0x10200040] _vfprintf_r
Chain 0: 0x7fc8dc8388c0 [00000000/00001d90/0x10200040] _vfprintf_r
----------------
IN: _vfprintf_r
0x0000238c:  e3530000  cmp      r3, #0
0x00002390:  e59f3a84  ldr      r3, [pc, #0xa84]
0x00002394:  15cd106f  strbne   r1, [sp, #0x6f]
0x00002398:  e31a0020  tst      sl, #0x20
0x0000239c:  e58d2040  str      r2, [sp, #0x40]
0x000023a0:  e58d3058  str      r3, [sp, #0x58]
0x000023a4:  0a0000b4  beq      #0x267c

Trace 0: 0x7fc8dc843f80 [00000000/0000238c/0x10200040] _vfprintf_r
----------------
IN: _vfprintf_r
0x0000267c:  e59d3034  ldr      r3, [sp, #0x34]
0x00002680:  e4936004  ldr      r6, [r3], #4
0x00002684:  e31a0010  tst      sl, #0x10
0x00002688:  e58d3034  str      r3, [sp, #0x34]
0x0000268c:  1a0002f9  bne      #0x3278

Trace 0: 0x7fc8dc844280 [00000000/0000267c/0x10200040] _vfprintf_r
----------------
IN: _vfprintf_r
0x00002690:  e31a0040  tst      sl, #0x40
0x00002694:  0a0002f7  beq      #0x3278

Linking TBs 0x7fc8dc844280 [0000267c] index 1 -> 0x7fc8dc844500 [00002690]
Trace 0: 0x7fc8dc844500 [00000000/00002690/0x10200040] _vfprintf_r
----------------
IN: _vfprintf_r
0x00003278:  e3a07000  mov      r7, #0
0x0000327c:  eafffc4e  b        #0x23bc

Trace 0: 0x7fc8dc844640 [00000000/00003278/0x10200040] _vfprintf_r
----------------
IN: _vfprintf_r
0x000023bc:  e31a0001  tst      sl, #1
0x000023c0:  0a00011d  beq      #0x283c

Trace 0: 0x7fc8dc844740 [00000000/000023bc/0x10200040] _vfprintf_r
----------------
IN: _vfprintf_r
0x0000283c:  e3a03002  mov      r3, #2
0x00002840:  eafffe3a  b        #0x2130

Trace 0: 0x7fc8dc844880 [00000000/0000283c/0x10200040] _vfprintf_r
----------------
IN: _vfprintf_r
0x00002130:  e3a02000  mov      r2, #0
0x00002134:  e1a04002  mov      r4, r2
0x00002138:  e5cd206f  strb     r2, [sp, #0x6f]
0x0000213c:  e3750001  cmn      r5, #1
0x00002140:  0a000282  beq      #0x2b50

Trace 0: 0x7fc8dc844980 [00000000/00002130/0x10200040] _vfprintf_r
----------------
IN: _vfprintf_r
0x00002b50:  e3530001  cmp      r3, #1
0x00002b54:  0affff3b  beq      #0x2848

Trace 0: 0x7fc8dc844b40 [00000000/00002b50/0x10200040] _vfprintf_r
----------------
IN: _vfprintf_r
0x00002b58:  e3530002  cmp      r3, #2
0x00002b5c:  128d10c0  addne    r1, sp, #0xc0
0x00002b60:  1a00000f  bne      #0x2ba4

Linking TBs 0x7fc8dc844b40 [00002b50] index 1 -> 0x7fc8dc844cc0 [00002b58]
Trace 0: 0x7fc8dc844cc0 [00000000/00002b58/0x10200040] _vfprintf_r
----------------
IN: _vfprintf_r
0x00002b64:  e28d30c0  add      r3, sp, #0xc0
0x00002b68:  e1a02003  mov      r2, r3
0x00002b6c:  e59dc058  ldr      ip, [sp, #0x58]
0x00002b70:  e1a03226  lsr      r3, r6, #4
0x00002b74:  e1833e07  orr      r3, r3, r7, lsl #28
0x00002b78:  e1a00227  lsr      r0, r7, #4
0x00002b7c:  e206100f  and      r1, r6, #0xf
0x00002b80:  e1a07000  mov      r7, r0
0x00002b84:  e1a06003  mov      r6, r3
0x00002b88:  e7dc3001  ldrb     r3, [ip, r1]
0x00002b8c:  e1961007  orrs     r1, r6, r7
0x00002b90:  e5623001  strb     r3, [r2, #-1]!
0x00002b94:  1afffff5  bne      #0x2b70

Linking TBs 0x7fc8dc844cc0 [00002b58] index 1 -> 0x7fc8dc844e40 [00002b64]
Trace 0: 0x7fc8dc844e40 [00000000/00002b64/0x10200040] _vfprintf_r
----------------
IN: _vfprintf_r
0x00002b70:  e1a03226  lsr      r3, r6, #4
0x00002b74:  e1833e07  orr      r3, r3, r7, lsl #28
0x00002b78:  e1a00227  lsr      r0, r7, #4
0x00002b7c:  e206100f  and      r1, r6, #0xf
0x00002b80:  e1a07000  mov      r7, r0
0x00002b84:  e1a06003  mov      r6, r3
0x00002b88:  e7dc3001  ldrb     r3, [ip, r1]
0x00002b8c:  e1961007  orrs     r1, r6, r7
0x00002b90:  e5623001  strb     r3, [r2, #-1]!
0x00002b94:  1afffff5  bne      #0x2b70

Linking TBs 0x7fc8dc844e40 [00002b64] index 0 -> 0x7fc8dc845100 [00002b70]
Trace 0: 0x7fc8dc845100 [00000000/00002b70/0x10200040] _vfprintf_r
Linking TBs 0x7fc8dc845100 [00002b70] index 0 -> 0x7fc8dc845100 [00002b70]
Trace 0: 0x7fc8dc845100 [00000000/00002b70/0x10200040] _vfprintf_r
----------------
IN: _vfprintf_r
0x00002b98:  e58d203c  str      r2, [sp, #0x3c]
0x00002b9c:  ea000011  b        #0x2be8

Linking TBs 0x7fc8dc845100 [00002b70] index 1 -> 0x7fc8dc845340 [00002b98]
Trace 0: 0x7fc8dc845340 [00000000/00002b98/0x10200040] _vfprintf_r
----------------
IN: _vfprintf_r
0x00002be8:  e28d30c0  add      r3, sp, #0xc0
0x00002bec:  e58da020  str      sl, [sp, #0x20]
0x00002bf0:  e0437002  sub      r7, r3, r2
0x00002bf4:  eafffd64  b        #0x218c

Linking TBs 0x7fc8dc845340 [00002b98] index 0 -> 0x7fc8dc8454c0 [00002be8]
Trace 0: 0x7fc8dc8454c0 [00000000/00002be8/0x10200040] _vfprintf_r
Chain 0: 0x7fc8dc83dd00 [00000000/0000218c/0x10200040] _vfprintf_r
Chain 0: 0x7fc8dc83f5c0 [00000000/00002bf8/0x10200040] _vfprintf_r
Chain 0: 0x7fc8dc83f740 [00000000/00002c00/0x10200040] _vfprintf_r
Chain 0: 0x7fc8dc83f8c0 [00000000/00008b44/0x10200040] __sprint_r
Chain 0: 0x7fc8dc822f80 [00000000/00006330/0x10200040] __sfvwrite_r
Chain 0: 0x7fc8dc82dd00 [00000000/00006424/0x10200040] __sfvwrite_r
Chain 0: 0x7fc8dc82e440 [00000000/00007280/0x10200040] memchr
Chain 0: 0x7fc8dc82f580 [00000000/00006694/0x10200040] __sfvwrite_r
Chain 0: 0x7fc8dc82ff00 [00000000/000074ac/0x10200040] memmove
Chain 0: 0x7fc8dc831580 [00000000/00006784/0x10200040] __sfvwrite_r
Chain 0: 0x7fc8dc82e440 [00000000/00007280/0x10200040] memchr
Chain 0: 0x7fc8dc82f580 [00000000/00006694/0x10200040] __sfvwrite_r
Chain 0: 0x7fc8dc82ff00 [00000000/000074ac/0x10200040] memmove
Chain 0: 0x7fc8dc831580 [00000000/00006784/0x10200040] __sfvwrite_r
Chain 0: 0x7fc8dc840b80 [00000000/00008b40/0x10200040] __sprint_r.part.0
Chain 0: 0x7fc8dc841180 [00000000/00002c08/0x10200040] _vfprintf_r
Chain 0: 0x7fc8dc841300 [00000000/000022f8/0x10200040] _vfprintf_r
Chain 0: 0x7fc8dc839880 [00000000/00001e54/0x10200040] _vfprintf_r
----------------
IN: _vfprintf_r
0x00002404:  e3a06000  mov      r6, #0
0x00002408:  e59d4034  ldr      r4, [sp, #0x34]
0x0000240c:  e4943004  ldr      r3, [r4], #4
0x00002410:  e1530006  cmp      r3, r6
0x00002414:  e58d2040  str      r2, [sp, #0x40]
0x00002418:  e58d303c  str      r3, [sp, #0x3c]
0x0000241c:  e5cd606f  strb     r6, [sp, #0x6f]
0x00002420:  0a000431  beq      #0x34ec

Trace 0: 0x7fc8dc845640 [00000000/00002404/0x10200040] _vfprintf_r
----------------
IN: _vfprintf_r
0x00002424:  e3750001  cmn      r5, #1
0x00002428:  0a0004a3  beq      #0x36bc

Linking TBs 0x7fc8dc845640 [00002404] index 1 -> 0x7fc8dc845940 [00002424]
Trace 0: 0x7fc8dc845940 [00000000/00002424/0x10200040] _vfprintf_r
----------------
IN: _vfprintf_r
0x000036bc:  e59d003c  ldr      r0, [sp, #0x3c]
0x000036c0:  ebfff98e  bl       #0x1d00

Trace 0: 0x7fc8dc845ac0 [00000000/000036bc/0x10200040] _vfprintf_r
Chain 0: 0x7fc8dc814b00 [00000000/00001d00/0x10200040] strlen
----------------
IN: _vfprintf_r
0x000036c4:  e1a05006  mov      r5, r6
0x000036c8:  e1a07000  mov      r7, r0
0x000036cc:  eafffb5f  b        #0x2450

Trace 0: 0x7fc8dc845c40 [00000000/000036c4/0x10200040] _vfprintf_r
----------------
IN: _vfprintf_r
0x00002450:  e1c73fc7  bic      r3, r7, r7, asr #31
0x00002454:  e58d4034  str      r4, [sp, #0x34]
0x00002458:  e58da020  str      sl, [sp, #0x20]
0x0000245c:  e58d301c  str      r3, [sp, #0x1c]
0x00002460:  e58d5044  str      r5, [sp, #0x44]
0x00002464:  e5dd406f  ldrb     r4, [sp, #0x6f]
0x00002468:  eaffff4d  b        #0x21a4

Trace 0: 0x7fc8dc845d80 [00000000/00002450/0x10200040] _vfprintf_r
----------------
IN: _vfprintf_r
0x000021a4:  e3540000  cmp      r4, #0
0x000021a8:  0a000002  beq      #0x21b8

Trace 0: 0x7fc8dc846040 [00000000/000021a4/0x10200040] _vfprintf_r
Linking TBs 0x7fc8dc846040 [000021a4] index 0 -> 0x7fc8dc83df80 [000021b8]
Trace 0: 0x7fc8dc83df80 [00000000/000021b8/0x10200040] _vfprintf_r
Chain 0: 0x7fc8dc83f5c0 [00000000/00002bf8/0x10200040] _vfprintf_r
Chain 0: 0x7fc8dc83f740 [00000000/00002c00/0x10200040] _vfprintf_r
Chain 0: 0x7fc8dc83f8c0 [00000000/00008b44/0x10200040] __sprint_r
Chain 0: 0x7fc8dc822f80 [00000000/00006330/0x10200040] __sfvwrite_r
Chain 0: 0x7fc8dc82dd00 [00000000/00006424/0x10200040] __sfvwrite_r
Chain 0: 0x7fc8dc82e440 [00000000/00007280/0x10200040] memchr
Chain 0: 0x7fc8dc82f580 [00000000/00006694/0x10200040] __sfvwrite_r
Chain 0: 0x7fc8dc82ff00 [00000000/000074ac/0x10200040] memmove
----------------
IN: memmove
0x000075f8:  e2422001  sub      r2, r2, #1
0x000075fc:  e1a0c000  mov      ip, r0
0x00007600:  eaffffbc  b        #0x74f8

Linking TBs 0x7fc8dc830380 [00007518] index 0 -> 0x7fc8dc846180 [000075f8]
Trace 0: 0x7fc8dc846180 [00000000/000075f8/0x10200040] memmove
Linking TBs 0x7fc8dc846180 [000075f8] index 0 -> 0x7fc8dc832480 [000074f8]
Trace 0: 0x7fc8dc832480 [00000000/000074f8/0x10200040] memmove
Chain 0: 0x7fc8dc831580 [00000000/00006784/0x10200040] __sfvwrite_r
Chain 0: 0x7fc8dc82e440 [00000000/00007280/0x10200040] memchr
Chain 0: 0x7fc8dc82f580 [00000000/00006694/0x10200040] __sfvwrite_r
Chain 0: 0x7fc8dc82ff00 [00000000/000074ac/0x10200040] memmove
Chain 0: 0x7fc8dc831580 [00000000/00006784/0x10200040] __sfvwrite_r
Chain 0: 0x7fc8dc840b80 [00000000/00008b40/0x10200040] __sprint_r.part.0
Chain 0: 0x7fc8dc841180 [00000000/00002c08/0x10200040] _vfprintf_r
Chain 0: 0x7fc8dc841300 [00000000/000022f8/0x10200040] _vfprintf_r
Chain 0: 0x7fc8dc839880 [00000000/00001e54/0x10200040] _vfprintf_r
Chain 0: 0x7fc8dc842000 [00000000/000020d4/0x10200040] _vfprintf_r
Chain 0: 0x7fc8dc83f8c0 [00000000/00008b44/0x10200040] __sprint_r
Chain 0: 0x7fc8dc822f80 [00000000/00006330/0x10200040] __sfvwrite_r
Chain 0: 0x7fc8dc82dd00 [00000000/00006424/0x10200040] __sfvwrite_r
Chain 0: 0x7fc8dc82e440 [00000000/00007280/0x10200040] memchr
Chain 0: 0x7fc8dc82f580 [00000000/00006694/0x10200040] __sfvwrite_r
Chain 0: 0x7fc8dc82ff00 [00000000/000074ac/0x10200040] memmove
Chain 0: 0x7fc8dc831580 [00000000/00006784/0x10200040] __sfvwrite_r
Chain 0: 0x7fc8dc832940 [00000000/00005b7c/0x10200040] _fflush_r
Chain 0: 0x7fc8dc833b40 [00000000/000089f4/0x10200040] __swrite
Chain 0: 0x7fc8dc834140 [00000000/00009e70/0x10200040] _write_r
Chain 0: 0x7fc8dc834480 [00000000/0000b018/0x10200040] _write
Chain 0: 0x7fc8dc816380 [00000000/0000ad4c/0x10200040] findslot
Chain 0: 0x7fc8dc834740 [00000000/0000b02c/0x10200040] _write
Trace 0: 0x7fc8dc834b40 [00000000/0000b054/0x10200040] _write
Chain 0: 0x7fc8dc835340 [00000000/00009e98/0x10200040] _write_r
Chain 0: 0x7fc8dc835740 [00000000/00008a30/0x10200040] __swrite
Chain 0: 0x7fc8dc835a40 [00000000/00005ac8/0x10200040] __sflush_r
Chain 0: 0x7fc8dc836080 [00000000/00006764/0x10200040] __sfvwrite_r
Chain 0: 0x7fc8dc840b80 [00000000/00008b40/0x10200040] __sprint_r.part.0
Chain 0: 0x7fc8dc842280 [00000000/000020ec/0x10200040] _vfprintf_r
Chain 0: 0x7fc8dc842900 [00000000/00001c2c/0x10200040] printf
----------------
IN: print_v1_info
0x000014cc:  e51b3020  ldr      r3, [fp, #-0x20]
0x000014d0:  e2833004  add      r3, r3, #4
0x000014d4:  e1a00003  mov      r0, r3
0x000014d8:  ebfffc85  bl       #0x6f4

Trace 0: 0x7fc8dc8462c0 [00000000/000014cc/0x10200040] print_v1_info
Chain 0: 0x7fc8dc842f40 [00000000/000006f4/0x10200040] volatile_read32
----------------
IN: print_v1_info
0x000014dc:  e1a03000  mov      r3, r0
0x000014e0:  e1a01003  mov      r1, r3
0x000014e4:  e59f0160  ldr      r0, [pc, #0x160]
0x000014e8:  eb0001c4  bl       #0x1c00

Trace 0: 0x7fc8dc846440 [00000000/000014dc/0x10200040] print_v1_info
Chain 0: 0x7fc8dc837c40 [00000000/00001c00/0x10200040] printf
Chain 0: 0x7fc8dc838580 [00000000/00006914/0x10200040] _localeconv_r
Chain 0: 0x7fc8dc838700 [00000000/00001d80/0x10200040] _vfprintf_r
Chain 0: 0x7fc8dc8388c0 [00000000/00001d90/0x10200040] _vfprintf_r
Chain 0: 0x7fc8dc843f80 [00000000/0000238c/0x10200040] _vfprintf_r
Chain 0: 0x7fc8dc844280 [00000000/0000267c/0x10200040] _vfprintf_r
Chain 0: 0x7fc8dc844640 [00000000/00003278/0x10200040] _vfprintf_r
Chain 0: 0x7fc8dc844740 [00000000/000023bc/0x10200040] _vfprintf_r
Chain 0: 0x7fc8dc844880 [00000000/0000283c/0x10200040] _vfprintf_r
Chain 0: 0x7fc8dc844980 [00000000/00002130/0x10200040] _vfprintf_r
Chain 0: 0x7fc8dc844b40 [00000000/00002b50/0x10200040] _vfprintf_r
Linking TBs 0x7fc8dc844e40 [00002b64] index 1 -> 0x7fc8dc845340 [00002b98]
Trace 0: 0x7fc8dc845340 [00000000/00002b98/0x10200040] _vfprintf_r
Chain 0: 0x7fc8dc83dd00 [00000000/0000218c/0x10200040] _vfprintf_r
Chain 0: 0x7fc8dc83f5c0 [00000000/00002bf8/0x10200040] _vfprintf_r
Chain 0: 0x7fc8dc83f740 [00000000/00002c00/0x10200040] _vfprintf_r
Chain 0: 0x7fc8dc83f8c0 [00000000/00008b44/0x10200040] __sprint_r
Chain 0: 0x7fc8dc822f80 [00000000/00006330/0x10200040] __sfvwrite_r
Chain 0: 0x7fc8dc82dd00 [00000000/00006424/0x10200040] __sfvwrite_r
Chain 0: 0x7fc8dc82e440 [00000000/00007280/0x10200040] memchr
Chain 0: 0x7fc8dc82f580 [00000000/00006694/0x10200040] __sfvwrite_r
Chain 0: 0x7fc8dc82ff00 [00000000/000074ac/0x10200040] memmove
Chain 0: 0x7fc8dc831580 [00000000/00006784/0x10200040] __sfvwrite_r
Chain 0: 0x7fc8dc82e440 [00000000/00007280/0x10200040] memchr
Chain 0: 0x7fc8dc82f580 [00000000/00006694/0x10200040] __sfvwrite_r
Chain 0: 0x7fc8dc82ff00 [00000000/000074ac/0x10200040] memmove
Chain 0: 0x7fc8dc831580 [00000000/00006784/0x10200040] __sfvwrite_r
Chain 0: 0x7fc8dc840b80 [00000000/00008b40/0x10200040] __sprint_r.part.0
Chain 0: 0x7fc8dc841180 [00000000/00002c08/0x10200040] _vfprintf_r
Chain 0: 0x7fc8dc841300 [00000000/000022f8/0x10200040] _vfprintf_r
Chain 0: 0x7fc8dc839880 [00000000/00001e54/0x10200040] _vfprintf_r
Chain 0: 0x7fc8dc842000 [00000000/000020d4/0x10200040] _vfprintf_r
Chain 0: 0x7fc8dc83f8c0 [00000000/00008b44/0x10200040] __sprint_r
Chain 0: 0x7fc8dc822f80 [00000000/00006330/0x10200040] __sfvwrite_r
Chain 0: 0x7fc8dc82dd00 [00000000/00006424/0x10200040] __sfvwrite_r
Chain 0: 0x7fc8dc82e440 [00000000/00007280/0x10200040] memchr
Chain 0: 0x7fc8dc82f580 [00000000/00006694/0x10200040] __sfvwrite_r
Chain 0: 0x7fc8dc82ff00 [00000000/000074ac/0x10200040] memmove
Chain 0: 0x7fc8dc831580 [00000000/00006784/0x10200040] __sfvwrite_r
Chain 0: 0x7fc8dc832940 [00000000/00005b7c/0x10200040] _fflush_r
Chain 0: 0x7fc8dc833b40 [00000000/000089f4/0x10200040] __swrite
Chain 0: 0x7fc8dc834140 [00000000/00009e70/0x10200040] _write_r
Chain 0: 0x7fc8dc834480 [00000000/0000b018/0x10200040] _write
Chain 0: 0x7fc8dc816380 [00000000/0000ad4c/0x10200040] findslot
Chain 0: 0x7fc8dc834740 [00000000/0000b02c/0x10200040] _write
Trace 0: 0x7fc8dc834b40 [00000000/0000b054/0x10200040] _write
Chain 0: 0x7fc8dc835340 [00000000/00009e98/0x10200040] _write_r
Chain 0: 0x7fc8dc835740 [00000000/00008a30/0x10200040] __swrite
Chain 0: 0x7fc8dc835a40 [00000000/00005ac8/0x10200040] __sflush_r
Chain 0: 0x7fc8dc836080 [00000000/00006764/0x10200040] __sfvwrite_r
Chain 0: 0x7fc8dc840b80 [00000000/00008b40/0x10200040] __sprint_r.part.0
Chain 0: 0x7fc8dc842280 [00000000/000020ec/0x10200040] _vfprintf_r
Chain 0: 0x7fc8dc842900 [00000000/00001c2c/0x10200040] printf
----------------
IN: print_v1_info
0x000014ec:  e51b3020  ldr      r3, [fp, #-0x20]
0x000014f0:  e2833008  add      r3, r3, #8
0x000014f4:  e1a00003  mov      r0, r3
0x000014f8:  ebfffc7d  bl       #0x6f4

Trace 0: 0x7fc8dc8465c0 [00000000/000014ec/0x10200040] print_v1_info
Chain 0: 0x7fc8dc842f40 [00000000/000006f4/0x10200040] volatile_read32
----------------
IN: print_v1_info
0x000014fc:  e1a03000  mov      r3, r0
0x00001500:  e1a01003  mov      r1, r3
0x00001504:  e59f0144  ldr      r0, [pc, #0x144]
0x00001508:  eb0001bc  bl       #0x1c00

Trace 0: 0x7fc8dc846740 [00000000/000014fc/0x10200040] print_v1_info
Chain 0: 0x7fc8dc837c40 [00000000/00001c00/0x10200040] printf
Chain 0: 0x7fc8dc838580 [00000000/00006914/0x10200040] _localeconv_r
Chain 0: 0x7fc8dc838700 [00000000/00001d80/0x10200040] _vfprintf_r
Chain 0: 0x7fc8dc8388c0 [00000000/00001d90/0x10200040] _vfprintf_r
Chain 0: 0x7fc8dc843f80 [00000000/0000238c/0x10200040] _vfprintf_r
Chain 0: 0x7fc8dc844280 [00000000/0000267c/0x10200040] _vfprintf_r
Chain 0: 0x7fc8dc844640 [00000000/00003278/0x10200040] _vfprintf_r
Chain 0: 0x7fc8dc844740 [00000000/000023bc/0x10200040] _vfprintf_r
Chain 0: 0x7fc8dc844880 [00000000/0000283c/0x10200040] _vfprintf_r
Chain 0: 0x7fc8dc844980 [00000000/00002130/0x10200040] _vfprintf_r
Chain 0: 0x7fc8dc844b40 [00000000/00002b50/0x10200040] _vfprintf_r
Chain 0: 0x7fc8dc83dd00 [00000000/0000218c/0x10200040] _vfprintf_r
Chain 0: 0x7fc8dc83f5c0 [00000000/00002bf8/0x10200040] _vfprintf_r
Chain 0: 0x7fc8dc83f740 [00000000/00002c00/0x10200040] _vfprintf_r
Chain 0: 0x7fc8dc83f8c0 [00000000/00008b44/0x10200040] __sprint_r
Chain 0: 0x7fc8dc822f80 [00000000/00006330/0x10200040] __sfvwrite_r
Chain 0: 0x7fc8dc82dd00 [00000000/00006424/0x10200040] __sfvwrite_r
Chain 0: 0x7fc8dc82e440 [00000000/00007280/0x10200040] memchr
Chain 0: 0x7fc8dc82f580 [00000000/00006694/0x10200040] __sfvwrite_r
Chain 0: 0x7fc8dc82ff00 [00000000/000074ac/0x10200040] memmove
Chain 0: 0x7fc8dc831580 [00000000/00006784/0x10200040] __sfvwrite_r
Chain 0: 0x7fc8dc82e440 [00000000/00007280/0x10200040] memchr
Chain 0: 0x7fc8dc82f580 [00000000/00006694/0x10200040] __sfvwrite_r
Chain 0: 0x7fc8dc82ff00 [00000000/000074ac/0x10200040] memmove
Chain 0: 0x7fc8dc831580 [00000000/00006784/0x10200040] __sfvwrite_r
Chain 0: 0x7fc8dc840b80 [00000000/00008b40/0x10200040] __sprint_r.part.0
Chain 0: 0x7fc8dc841180 [00000000/00002c08/0x10200040] _vfprintf_r
Chain 0: 0x7fc8dc841300 [00000000/000022f8/0x10200040] _vfprintf_r
Chain 0: 0x7fc8dc839880 [00000000/00001e54/0x10200040] _vfprintf_r
Chain 0: 0x7fc8dc842000 [00000000/000020d4/0x10200040] _vfprintf_r
Chain 0: 0x7fc8dc83f8c0 [00000000/00008b44/0x10200040] __sprint_r
Chain 0: 0x7fc8dc822f80 [00000000/00006330/0x10200040] __sfvwrite_r
Chain 0: 0x7fc8dc82dd00 [00000000/00006424/0x10200040] __sfvwrite_r
Chain 0: 0x7fc8dc82e440 [00000000/00007280/0x10200040] memchr
Chain 0: 0x7fc8dc82f580 [00000000/00006694/0x10200040] __sfvwrite_r
Chain 0: 0x7fc8dc82ff00 [00000000/000074ac/0x10200040] memmove
Chain 0: 0x7fc8dc831580 [00000000/00006784/0x10200040] __sfvwrite_r
Chain 0: 0x7fc8dc832940 [00000000/00005b7c/0x10200040] _fflush_r
Chain 0: 0x7fc8dc833b40 [00000000/000089f4/0x10200040] __swrite
Chain 0: 0x7fc8dc834140 [00000000/00009e70/0x10200040] _write_r
Chain 0: 0x7fc8dc834480 [00000000/0000b018/0x10200040] _write
Chain 0: 0x7fc8dc816380 [00000000/0000ad4c/0x10200040] findslot
Chain 0: 0x7fc8dc834740 [00000000/0000b02c/0x10200040] _write
Trace 0: 0x7fc8dc834b40 [00000000/0000b054/0x10200040] _write
Chain 0: 0x7fc8dc835340 [00000000/00009e98/0x10200040] _write_r
Chain 0: 0x7fc8dc835740 [00000000/00008a30/0x10200040] __swrite
Chain 0: 0x7fc8dc835a40 [00000000/00005ac8/0x10200040] __sflush_r
Chain 0: 0x7fc8dc836080 [00000000/00006764/0x10200040] __sfvwrite_r
Chain 0: 0x7fc8dc840b80 [00000000/00008b40/0x10200040] __sprint_r.part.0
Chain 0: 0x7fc8dc842280 [00000000/000020ec/0x10200040] _vfprintf_r
Chain 0: 0x7fc8dc842900 [00000000/00001c2c/0x10200040] printf
----------------
IN: print_v1_info
0x0000150c:  e51b3020  ldr      r3, [fp, #-0x20]
0x00001510:  e283300c  add      r3, r3, #0xc
0x00001514:  e1a00003  mov      r0, r3
0x00001518:  ebfffc75  bl       #0x6f4

Trace 0: 0x7fc8dc8468c0 [00000000/0000150c/0x10200040] print_v1_info
Chain 0: 0x7fc8dc842f40 [00000000/000006f4/0x10200040] volatile_read32
----------------
IN: print_v1_info
0x0000151c:  e50b000c  str      r0, [fp, #-0xc]
0x00001520:  e51b300c  ldr      r3, [fp, #-0xc]
0x00001524:  e20330ff  and      r3, r3, #0xff
0x00001528:  e54b301c  strb     r3, [fp, #-0x1c]
0x0000152c:  e51b300c  ldr      r3, [fp, #-0xc]
0x00001530:  e1a03423  lsr      r3, r3, #8
0x00001534:  e20330ff  and      r3, r3, #0xff
0x00001538:  e54b301b  strb     r3, [fp, #-0x1b]
0x0000153c:  e51b300c  ldr      r3, [fp, #-0xc]
0x00001540:  e1a03823  lsr      r3, r3, #0x10
0x00001544:  e20330ff  and      r3, r3, #0xff
0x00001548:  e54b301a  strb     r3, [fp, #-0x1a]
0x0000154c:  e51b300c  ldr      r3, [fp, #-0xc]
0x00001550:  e1a03c23  lsr      r3, r3, #0x18
0x00001554:  e20330ff  and      r3, r3, #0xff
0x00001558:  e54b3019  strb     r3, [fp, #-0x19]
0x0000155c:  e3a03000  mov      r3, #0
0x00001560:  e54b3018  strb     r3, [fp, #-0x18]
0x00001564:  e24b301c  sub      r3, fp, #0x1c
0x00001568:  e1a02003  mov      r2, r3
0x0000156c:  e51b100c  ldr      r1, [fp, #-0xc]
0x00001570:  e59f00dc  ldr      r0, [pc, #0xdc]
0x00001574:  eb0001a1  bl       #0x1c00

Trace 0: 0x7fc8dc846a40 [00000000/0000151c/0x10200040] print_v1_info
Chain 0: 0x7fc8dc837c40 [00000000/00001c00/0x10200040] printf
Chain 0: 0x7fc8dc838580 [00000000/00006914/0x10200040] _localeconv_r
Chain 0: 0x7fc8dc838700 [00000000/00001d80/0x10200040] _vfprintf_r
Chain 0: 0x7fc8dc8388c0 [00000000/00001d90/0x10200040] _vfprintf_r
Chain 0: 0x7fc8dc843f80 [00000000/0000238c/0x10200040] _vfprintf_r
Chain 0: 0x7fc8dc844280 [00000000/0000267c/0x10200040] _vfprintf_r
Chain 0: 0x7fc8dc844640 [00000000/00003278/0x10200040] _vfprintf_r
Chain 0: 0x7fc8dc844740 [00000000/000023bc/0x10200040] _vfprintf_r
Chain 0: 0x7fc8dc844880 [00000000/0000283c/0x10200040] _vfprintf_r
Chain 0: 0x7fc8dc844980 [00000000/00002130/0x10200040] _vfprintf_r
Chain 0: 0x7fc8dc844b40 [00000000/00002b50/0x10200040] _vfprintf_r
Chain 0: 0x7fc8dc83dd00 [00000000/0000218c/0x10200040] _vfprintf_r
Chain 0: 0x7fc8dc83f5c0 [00000000/00002bf8/0x10200040] _vfprintf_r
Chain 0: 0x7fc8dc83f740 [00000000/00002c00/0x10200040] _vfprintf_r
Chain 0: 0x7fc8dc83f8c0 [00000000/00008b44/0x10200040] __sprint_r
Chain 0: 0x7fc8dc822f80 [00000000/00006330/0x10200040] __sfvwrite_r
Chain 0: 0x7fc8dc82dd00 [00000000/00006424/0x10200040] __sfvwrite_r
Chain 0: 0x7fc8dc82e440 [00000000/00007280/0x10200040] memchr
Chain 0: 0x7fc8dc82f580 [00000000/00006694/0x10200040] __sfvwrite_r
Chain 0: 0x7fc8dc82ff00 [00000000/000074ac/0x10200040] memmove
Chain 0: 0x7fc8dc831580 [00000000/00006784/0x10200040] __sfvwrite_r
Chain 0: 0x7fc8dc82e440 [00000000/00007280/0x10200040] memchr
Chain 0: 0x7fc8dc82f580 [00000000/00006694/0x10200040] __sfvwrite_r
Chain 0: 0x7fc8dc82ff00 [00000000/000074ac/0x10200040] memmove
Chain 0: 0x7fc8dc831580 [00000000/00006784/0x10200040] __sfvwrite_r
Chain 0: 0x7fc8dc840b80 [00000000/00008b40/0x10200040] __sprint_r.part.0
Chain 0: 0x7fc8dc841180 [00000000/00002c08/0x10200040] _vfprintf_r
Chain 0: 0x7fc8dc841300 [00000000/000022f8/0x10200040] _vfprintf_r
Chain 0: 0x7fc8dc839880 [00000000/00001e54/0x10200040] _vfprintf_r
Chain 0: 0x7fc8dc845640 [00000000/00002404/0x10200040] _vfprintf_r
Chain 0: 0x7fc8dc845ac0 [00000000/000036bc/0x10200040] _vfprintf_r
Chain 0: 0x7fc8dc814b00 [00000000/00001d00/0x10200040] strlen
Chain 0: 0x7fc8dc845c40 [00000000/000036c4/0x10200040] _vfprintf_r
Chain 0: 0x7fc8dc845d80 [00000000/00002450/0x10200040] _vfprintf_r
Chain 0: 0x7fc8dc846040 [00000000/000021a4/0x10200040] _vfprintf_r
Chain 0: 0x7fc8dc83f5c0 [00000000/00002bf8/0x10200040] _vfprintf_r
Chain 0: 0x7fc8dc83f740 [00000000/00002c00/0x10200040] _vfprintf_r
Chain 0: 0x7fc8dc83f8c0 [00000000/00008b44/0x10200040] __sprint_r
Chain 0: 0x7fc8dc822f80 [00000000/00006330/0x10200040] __sfvwrite_r
Chain 0: 0x7fc8dc82dd00 [00000000/00006424/0x10200040] __sfvwrite_r
Chain 0: 0x7fc8dc82e440 [00000000/00007280/0x10200040] memchr
Chain 0: 0x7fc8dc82f580 [00000000/00006694/0x10200040] __sfvwrite_r
Chain 0: 0x7fc8dc82ff00 [00000000/000074ac/0x10200040] memmove
Chain 0: 0x7fc8dc831580 [00000000/00006784/0x10200040] __sfvwrite_r
Chain 0: 0x7fc8dc82e440 [00000000/00007280/0x10200040] memchr
Chain 0: 0x7fc8dc82f580 [00000000/00006694/0x10200040] __sfvwrite_r
Chain 0: 0x7fc8dc82ff00 [00000000/000074ac/0x10200040] memmove
Chain 0: 0x7fc8dc831580 [00000000/00006784/0x10200040] __sfvwrite_r
Chain 0: 0x7fc8dc840b80 [00000000/00008b40/0x10200040] __sprint_r.part.0
Chain 0: 0x7fc8dc841180 [00000000/00002c08/0x10200040] _vfprintf_r
Chain 0: 0x7fc8dc841300 [00000000/000022f8/0x10200040] _vfprintf_r
Chain 0: 0x7fc8dc839880 [00000000/00001e54/0x10200040] _vfprintf_r
Chain 0: 0x7fc8dc842000 [00000000/000020d4/0x10200040] _vfprintf_r
Chain 0: 0x7fc8dc83f8c0 [00000000/00008b44/0x10200040] __sprint_r
Chain 0: 0x7fc8dc822f80 [00000000/00006330/0x10200040] __sfvwrite_r
Chain 0: 0x7fc8dc82dd00 [00000000/00006424/0x10200040] __sfvwrite_r
Chain 0: 0x7fc8dc82e440 [00000000/00007280/0x10200040] memchr
Chain 0: 0x7fc8dc82f580 [00000000/00006694/0x10200040] __sfvwrite_r
Chain 0: 0x7fc8dc82ff00 [00000000/000074ac/0x10200040] memmove
Chain 0: 0x7fc8dc831580 [00000000/00006784/0x10200040] __sfvwrite_r
Chain 0: 0x7fc8dc832940 [00000000/00005b7c/0x10200040] _fflush_r
Chain 0: 0x7fc8dc833b40 [00000000/000089f4/0x10200040] __swrite
Chain 0: 0x7fc8dc834140 [00000000/00009e70/0x10200040] _write_r
Chain 0: 0x7fc8dc834480 [00000000/0000b018/0x10200040] _write
Chain 0: 0x7fc8dc816380 [00000000/0000ad4c/0x10200040] findslot
Chain 0: 0x7fc8dc834740 [00000000/0000b02c/0x10200040] _write
Trace 0: 0x7fc8dc834b40 [00000000/0000b054/0x10200040] _write
Chain 0: 0x7fc8dc835340 [00000000/00009e98/0x10200040] _write_r
Chain 0: 0x7fc8dc835740 [00000000/00008a30/0x10200040] __swrite
Chain 0: 0x7fc8dc835a40 [00000000/00005ac8/0x10200040] __sflush_r
Chain 0: 0x7fc8dc836080 [00000000/00006764/0x10200040] __sfvwrite_r
Chain 0: 0x7fc8dc840b80 [00000000/00008b40/0x10200040] __sprint_r.part.0
Chain 0: 0x7fc8dc842280 [00000000/000020ec/0x10200040] _vfprintf_r
Chain 0: 0x7fc8dc842900 [00000000/00001c2c/0x10200040] printf
----------------
IN: print_v1_info
0x00001578:  e51b3020  ldr      r3, [fp, #-0x20]
0x0000157c:  e2833010  add      r3, r3, #0x10
0x00001580:  e1a00003  mov      r0, r3
0x00001584:  ebfffc5a  bl       #0x6f4

Trace 0: 0x7fc8dc846f80 [00000000/00001578/0x10200040] print_v1_info
Chain 0: 0x7fc8dc842f40 [00000000/000006f4/0x10200040] volatile_read32
----------------
IN: print_v1_info
0x00001588:  e1a03000  mov      r3, r0
0x0000158c:  e1a01003  mov      r1, r3
0x00001590:  e59f00c0  ldr      r0, [pc, #0xc0]
0x00001594:  eb000199  bl       #0x1c00

Trace 0: 0x7fc8dc847100 [00000000/00001588/0x10200040] print_v1_info
Chain 0: 0x7fc8dc837c40 [00000000/00001c00/0x10200040] printf
Chain 0: 0x7fc8dc838580 [00000000/00006914/0x10200040] _localeconv_r
Chain 0: 0x7fc8dc838700 [00000000/00001d80/0x10200040] _vfprintf_r
Chain 0: 0x7fc8dc8388c0 [00000000/00001d90/0x10200040] _vfprintf_r
Chain 0: 0x7fc8dc843f80 [00000000/0000238c/0x10200040] _vfprintf_r
Chain 0: 0x7fc8dc844280 [00000000/0000267c/0x10200040] _vfprintf_r
Chain 0: 0x7fc8dc844640 [00000000/00003278/0x10200040] _vfprintf_r
Chain 0: 0x7fc8dc844740 [00000000/000023bc/0x10200040] _vfprintf_r
Chain 0: 0x7fc8dc844880 [00000000/0000283c/0x10200040] _vfprintf_r
Chain 0: 0x7fc8dc844980 [00000000/00002130/0x10200040] _vfprintf_r
Chain 0: 0x7fc8dc844b40 [00000000/00002b50/0x10200040] _vfprintf_r
Chain 0: 0x7fc8dc83dd00 [00000000/0000218c/0x10200040] _vfprintf_r
Chain 0: 0x7fc8dc83f5c0 [00000000/00002bf8/0x10200040] _vfprintf_r
Chain 0: 0x7fc8dc83f740 [00000000/00002c00/0x10200040] _vfprintf_r
Chain 0: 0x7fc8dc83f8c0 [00000000/00008b44/0x10200040] __sprint_r
Chain 0: 0x7fc8dc822f80 [00000000/00006330/0x10200040] __sfvwrite_r
Chain 0: 0x7fc8dc82dd00 [00000000/00006424/0x10200040] __sfvwrite_r
Chain 0: 0x7fc8dc82e440 [00000000/00007280/0x10200040] memchr
Chain 0: 0x7fc8dc82f580 [00000000/00006694/0x10200040] __sfvwrite_r
Chain 0: 0x7fc8dc82ff00 [00000000/000074ac/0x10200040] memmove
----------------
IN: memmove
0x000075c8:  e3520000  cmp      r2, #0
0x000075cc:  e2422001  sub      r2, r2, #1
0x000075d0:  12822001  addne    r2, r2, #1
0x000075d4:  10813002  addne    r3, r1, r2
0x000075d8:  124c2001  subne    r2, ip, #1
0x000075dc:  0a000003  beq      #0x75f0

Linking TBs 0x7fc8dc830a80 [00007570] index 0 -> 0x7fc8dc847280 [000075c8]
Trace 0: 0x7fc8dc847280 [00000000/000075c8/0x10200040] memmove
Linking TBs 0x7fc8dc847280 [000075c8] index 1 -> 0x7fc8dc837480 [000075e0]
Trace 0: 0x7fc8dc837480 [00000000/000075e0/0x10200040] memmove
Chain 0: 0x7fc8dc831580 [00000000/00006784/0x10200040] __sfvwrite_r
Chain 0: 0x7fc8dc82e440 [00000000/00007280/0x10200040] memchr
Chain 0: 0x7fc8dc82f580 [00000000/00006694/0x10200040] __sfvwrite_r
Chain 0: 0x7fc8dc82ff00 [00000000/000074ac/0x10200040] memmove
Chain 0: 0x7fc8dc831580 [00000000/00006784/0x10200040] __sfvwrite_r
Chain 0: 0x7fc8dc840b80 [00000000/00008b40/0x10200040] __sprint_r.part.0
Chain 0: 0x7fc8dc841180 [00000000/00002c08/0x10200040] _vfprintf_r
Chain 0: 0x7fc8dc841300 [00000000/000022f8/0x10200040] _vfprintf_r
Chain 0: 0x7fc8dc839880 [00000000/00001e54/0x10200040] _vfprintf_r
Chain 0: 0x7fc8dc842000 [00000000/000020d4/0x10200040] _vfprintf_r
Chain 0: 0x7fc8dc83f8c0 [00000000/00008b44/0x10200040] __sprint_r
Chain 0: 0x7fc8dc822f80 [00000000/00006330/0x10200040] __sfvwrite_r
Chain 0: 0x7fc8dc82dd00 [00000000/00006424/0x10200040] __sfvwrite_r
Chain 0: 0x7fc8dc82e440 [00000000/00007280/0x10200040] memchr
Chain 0: 0x7fc8dc82f580 [00000000/00006694/0x10200040] __sfvwrite_r
Chain 0: 0x7fc8dc82ff00 [00000000/000074ac/0x10200040] memmove
Chain 0: 0x7fc8dc831580 [00000000/00006784/0x10200040] __sfvwrite_r
Chain 0: 0x7fc8dc832940 [00000000/00005b7c/0x10200040] _fflush_r
Chain 0: 0x7fc8dc833b40 [00000000/000089f4/0x10200040] __swrite
Chain 0: 0x7fc8dc834140 [00000000/00009e70/0x10200040] _write_r
Chain 0: 0x7fc8dc834480 [00000000/0000b018/0x10200040] _write
Chain 0: 0x7fc8dc816380 [00000000/0000ad4c/0x10200040] findslot
Chain 0: 0x7fc8dc834740 [00000000/0000b02c/0x10200040] _write
Trace 0: 0x7fc8dc834b40 [00000000/0000b054/0x10200040] _write
Chain 0: 0x7fc8dc835340 [00000000/00009e98/0x10200040] _write_r
Chain 0: 0x7fc8dc835740 [00000000/00008a30/0x10200040] __swrite
Chain 0: 0x7fc8dc835a40 [00000000/00005ac8/0x10200040] __sflush_r
Chain 0: 0x7fc8dc836080 [00000000/00006764/0x10200040] __sfvwrite_r
Chain 0: 0x7fc8dc840b80 [00000000/00008b40/0x10200040] __sprint_r.part.0
Chain 0: 0x7fc8dc842280 [00000000/000020ec/0x10200040] _vfprintf_r
Chain 0: 0x7fc8dc842900 [00000000/00001c2c/0x10200040] printf
----------------
IN: print_v1_info
0x00001598:  e51b3020  ldr      r3, [fp, #-0x20]
0x0000159c:  e2833034  add      r3, r3, #0x34
0x000015a0:  e1a00003  mov      r0, r3
0x000015a4:  ebfffc52  bl       #0x6f4

Trace 0: 0x7fc8dc847440 [00000000/00001598/0x10200040] print_v1_info
Chain 0: 0x7fc8dc842f40 [00000000/000006f4/0x10200040] volatile_read32
----------------
IN: print_v1_info
0x000015a8:  e1a03000  mov      r3, r0
0x000015ac:  e1a01003  mov      r1, r3
0x000015b0:  e59f00a4  ldr      r0, [pc, #0xa4]
0x000015b4:  eb000191  bl       #0x1c00

Trace 0: 0x7fc8dc8475c0 [00000000/000015a8/0x10200040] print_v1_info
Chain 0: 0x7fc8dc837c40 [00000000/00001c00/0x10200040] printf
Chain 0: 0x7fc8dc838580 [00000000/00006914/0x10200040] _localeconv_r
Chain 0: 0x7fc8dc838700 [00000000/00001d80/0x10200040] _vfprintf_r
Chain 0: 0x7fc8dc8388c0 [00000000/00001d90/0x10200040] _vfprintf_r
Chain 0: 0x7fc8dc843f80 [00000000/0000238c/0x10200040] _vfprintf_r
Chain 0: 0x7fc8dc844280 [00000000/0000267c/0x10200040] _vfprintf_r
Chain 0: 0x7fc8dc844640 [00000000/00003278/0x10200040] _vfprintf_r
Chain 0: 0x7fc8dc844740 [00000000/000023bc/0x10200040] _vfprintf_r
Chain 0: 0x7fc8dc844880 [00000000/0000283c/0x10200040] _vfprintf_r
Chain 0: 0x7fc8dc844980 [00000000/00002130/0x10200040] _vfprintf_r
Chain 0: 0x7fc8dc844b40 [00000000/00002b50/0x10200040] _vfprintf_r
Chain 0: 0x7fc8dc83dd00 [00000000/0000218c/0x10200040] _vfprintf_r
Chain 0: 0x7fc8dc83f5c0 [00000000/00002bf8/0x10200040] _vfprintf_r
Chain 0: 0x7fc8dc83f740 [00000000/00002c00/0x10200040] _vfprintf_r
Chain 0: 0x7fc8dc83f8c0 [00000000/00008b44/0x10200040] __sprint_r
Chain 0: 0x7fc8dc822f80 [00000000/00006330/0x10200040] __sfvwrite_r
Chain 0: 0x7fc8dc82dd00 [00000000/00006424/0x10200040] __sfvwrite_r
Chain 0: 0x7fc8dc82e440 [00000000/00007280/0x10200040] memchr
Chain 0: 0x7fc8dc82f580 [00000000/00006694/0x10200040] __sfvwrite_r
Chain 0: 0x7fc8dc82ff00 [00000000/000074ac/0x10200040] memmove
Chain 0: 0x7fc8dc831580 [00000000/00006784/0x10200040] __sfvwrite_r
Chain 0: 0x7fc8dc82e440 [00000000/00007280/0x10200040] memchr
Chain 0: 0x7fc8dc82f580 [00000000/00006694/0x10200040] __sfvwrite_r
Chain 0: 0x7fc8dc82ff00 [00000000/000074ac/0x10200040] memmove
Chain 0: 0x7fc8dc831580 [00000000/00006784/0x10200040] __sfvwrite_r
Chain 0: 0x7fc8dc840b80 [00000000/00008b40/0x10200040] __sprint_r.part.0
Chain 0: 0x7fc8dc841180 [00000000/00002c08/0x10200040] _vfprintf_r
Chain 0: 0x7fc8dc841300 [00000000/000022f8/0x10200040] _vfprintf_r
Chain 0: 0x7fc8dc839880 [00000000/00001e54/0x10200040] _vfprintf_r
Chain 0: 0x7fc8dc842000 [00000000/000020d4/0x10200040] _vfprintf_r
Chain 0: 0x7fc8dc83f8c0 [00000000/00008b44/0x10200040] __sprint_r
Chain 0: 0x7fc8dc822f80 [00000000/00006330/0x10200040] __sfvwrite_r
Chain 0: 0x7fc8dc82dd00 [00000000/00006424/0x10200040] __sfvwrite_r
Chain 0: 0x7fc8dc82e440 [00000000/00007280/0x10200040] memchr
Chain 0: 0x7fc8dc82f580 [00000000/00006694/0x10200040] __sfvwrite_r
Chain 0: 0x7fc8dc82ff00 [00000000/000074ac/0x10200040] memmove
Chain 0: 0x7fc8dc831580 [00000000/00006784/0x10200040] __sfvwrite_r
Chain 0: 0x7fc8dc832940 [00000000/00005b7c/0x10200040] _fflush_r
Chain 0: 0x7fc8dc833b40 [00000000/000089f4/0x10200040] __swrite
Chain 0: 0x7fc8dc834140 [00000000/00009e70/0x10200040] _write_r
Chain 0: 0x7fc8dc834480 [00000000/0000b018/0x10200040] _write
Chain 0: 0x7fc8dc816380 [00000000/0000ad4c/0x10200040] findslot
Chain 0: 0x7fc8dc834740 [00000000/0000b02c/0x10200040] _write
Trace 0: 0x7fc8dc834b40 [00000000/0000b054/0x10200040] _write
Chain 0: 0x7fc8dc835340 [00000000/00009e98/0x10200040] _write_r
Chain 0: 0x7fc8dc835740 [00000000/00008a30/0x10200040] __swrite
Chain 0: 0x7fc8dc835a40 [00000000/00005ac8/0x10200040] __sflush_r
Chain 0: 0x7fc8dc836080 [00000000/00006764/0x10200040] __sfvwrite_r
Chain 0: 0x7fc8dc840b80 [00000000/00008b40/0x10200040] __sprint_r.part.0
Chain 0: 0x7fc8dc842280 [00000000/000020ec/0x10200040] _vfprintf_r
Chain 0: 0x7fc8dc842900 [00000000/00001c2c/0x10200040] printf
----------------
IN: print_v1_info
0x000015b8:  e51b3020  ldr      r3, [fp, #-0x20]
0x000015bc:  e2833044  add      r3, r3, #0x44
0x000015c0:  e1a00003  mov      r0, r3
0x000015c4:  ebfffc4a  bl       #0x6f4

Trace 0: 0x7fc8dc847740 [00000000/000015b8/0x10200040] print_v1_info
Chain 0: 0x7fc8dc842f40 [00000000/000006f4/0x10200040] volatile_read32
----------------
IN: print_v1_info
0x000015c8:  e1a03000  mov      r3, r0
0x000015cc:  e1a01003  mov      r1, r3
0x000015d0:  e59f0088  ldr      r0, [pc, #0x88]
0x000015d4:  eb000189  bl       #0x1c00

Trace 0: 0x7fc8dc8478c0 [00000000/000015c8/0x10200040] print_v1_info
Chain 0: 0x7fc8dc837c40 [00000000/00001c00/0x10200040] printf
Chain 0: 0x7fc8dc838580 [00000000/00006914/0x10200040] _localeconv_r
Chain 0: 0x7fc8dc838700 [00000000/00001d80/0x10200040] _vfprintf_r
Chain 0: 0x7fc8dc8388c0 [00000000/00001d90/0x10200040] _vfprintf_r
Chain 0: 0x7fc8dc843f80 [00000000/0000238c/0x10200040] _vfprintf_r
Chain 0: 0x7fc8dc844280 [00000000/0000267c/0x10200040] _vfprintf_r
Chain 0: 0x7fc8dc844640 [00000000/00003278/0x10200040] _vfprintf_r
Chain 0: 0x7fc8dc844740 [00000000/000023bc/0x10200040] _vfprintf_r
Chain 0: 0x7fc8dc844880 [00000000/0000283c/0x10200040] _vfprintf_r
Chain 0: 0x7fc8dc844980 [00000000/00002130/0x10200040] _vfprintf_r
Chain 0: 0x7fc8dc844b40 [00000000/00002b50/0x10200040] _vfprintf_r
Chain 0: 0x7fc8dc83dd00 [00000000/0000218c/0x10200040] _vfprintf_r
Chain 0: 0x7fc8dc83f5c0 [00000000/00002bf8/0x10200040] _vfprintf_r
Chain 0: 0x7fc8dc83f740 [00000000/00002c00/0x10200040] _vfprintf_r
Chain 0: 0x7fc8dc83f8c0 [00000000/00008b44/0x10200040] __sprint_r
Chain 0: 0x7fc8dc822f80 [00000000/00006330/0x10200040] __sfvwrite_r
Chain 0: 0x7fc8dc82dd00 [00000000/00006424/0x10200040] __sfvwrite_r
Chain 0: 0x7fc8dc82e440 [00000000/00007280/0x10200040] memchr
Chain 0: 0x7fc8dc82f580 [00000000/00006694/0x10200040] __sfvwrite_r
Chain 0: 0x7fc8dc82ff00 [00000000/000074ac/0x10200040] memmove
Chain 0: 0x7fc8dc831580 [00000000/00006784/0x10200040] __sfvwrite_r
Chain 0: 0x7fc8dc82e440 [00000000/00007280/0x10200040] memchr
Chain 0: 0x7fc8dc82f580 [00000000/00006694/0x10200040] __sfvwrite_r
Chain 0: 0x7fc8dc82ff00 [00000000/000074ac/0x10200040] memmove
Chain 0: 0x7fc8dc831580 [00000000/00006784/0x10200040] __sfvwrite_r
Chain 0: 0x7fc8dc840b80 [00000000/00008b40/0x10200040] __sprint_r.part.0
Chain 0: 0x7fc8dc841180 [00000000/00002c08/0x10200040] _vfprintf_r
Chain 0: 0x7fc8dc841300 [00000000/000022f8/0x10200040] _vfprintf_r
Chain 0: 0x7fc8dc839880 [00000000/00001e54/0x10200040] _vfprintf_r
Chain 0: 0x7fc8dc842000 [00000000/000020d4/0x10200040] _vfprintf_r
Chain 0: 0x7fc8dc83f8c0 [00000000/00008b44/0x10200040] __sprint_r
Chain 0: 0x7fc8dc822f80 [00000000/00006330/0x10200040] __sfvwrite_r
Chain 0: 0x7fc8dc82dd00 [00000000/00006424/0x10200040] __sfvwrite_r
Chain 0: 0x7fc8dc82e440 [00000000/00007280/0x10200040] memchr
Chain 0: 0x7fc8dc82f580 [00000000/00006694/0x10200040] __sfvwrite_r
Chain 0: 0x7fc8dc82ff00 [00000000/000074ac/0x10200040] memmove
Chain 0: 0x7fc8dc831580 [00000000/00006784/0x10200040] __sfvwrite_r
Chain 0: 0x7fc8dc832940 [00000000/00005b7c/0x10200040] _fflush_r
Chain 0: 0x7fc8dc833b40 [00000000/000089f4/0x10200040] __swrite
Chain 0: 0x7fc8dc834140 [00000000/00009e70/0x10200040] _write_r
Chain 0: 0x7fc8dc834480 [00000000/0000b018/0x10200040] _write
Chain 0: 0x7fc8dc816380 [00000000/0000ad4c/0x10200040] findslot
Chain 0: 0x7fc8dc834740 [00000000/0000b02c/0x10200040] _write
Trace 0: 0x7fc8dc834b40 [00000000/0000b054/0x10200040] _write
Chain 0: 0x7fc8dc835340 [00000000/00009e98/0x10200040] _write_r
Chain 0: 0x7fc8dc835740 [00000000/00008a30/0x10200040] __swrite
Chain 0: 0x7fc8dc835a40 [00000000/00005ac8/0x10200040] __sflush_r
Chain 0: 0x7fc8dc836080 [00000000/00006764/0x10200040] __sfvwrite_r
Chain 0: 0x7fc8dc840b80 [00000000/00008b40/0x10200040] __sprint_r.part.0
Chain 0: 0x7fc8dc842280 [00000000/000020ec/0x10200040] _vfprintf_r
Chain 0: 0x7fc8dc842900 [00000000/00001c2c/0x10200040] printf
----------------
IN: print_v1_info
0x000015d8:  e51b3020  ldr      r3, [fp, #-0x20]
0x000015dc:  e2833060  add      r3, r3, #0x60
0x000015e0:  e1a00003  mov      r0, r3
0x000015e4:  ebfffc42  bl       #0x6f4

Trace 0: 0x7fc8dc847a40 [00000000/000015d8/0x10200040] print_v1_info
Chain 0: 0x7fc8dc842f40 [00000000/000006f4/0x10200040] volatile_read32
----------------
IN: print_v1_info
0x000015e8:  e1a03000  mov      r3, r0
0x000015ec:  e1a01003  mov      r1, r3
0x000015f0:  e59f006c  ldr      r0, [pc, #0x6c]
0x000015f4:  eb000181  bl       #0x1c00

Trace 0: 0x7fc8dc847bc0 [00000000/000015e8/0x10200040] print_v1_info
Chain 0: 0x7fc8dc837c40 [00000000/00001c00/0x10200040] printf
Chain 0: 0x7fc8dc838580 [00000000/00006914/0x10200040] _localeconv_r
Chain 0: 0x7fc8dc838700 [00000000/00001d80/0x10200040] _vfprintf_r
Chain 0: 0x7fc8dc8388c0 [00000000/00001d90/0x10200040] _vfprintf_r
Chain 0: 0x7fc8dc843f80 [00000000/0000238c/0x10200040] _vfprintf_r
Chain 0: 0x7fc8dc844280 [00000000/0000267c/0x10200040] _vfprintf_r
Chain 0: 0x7fc8dc844640 [00000000/00003278/0x10200040] _vfprintf_r
Chain 0: 0x7fc8dc844740 [00000000/000023bc/0x10200040] _vfprintf_r
Chain 0: 0x7fc8dc844880 [00000000/0000283c/0x10200040] _vfprintf_r
Chain 0: 0x7fc8dc844980 [00000000/00002130/0x10200040] _vfprintf_r
Chain 0: 0x7fc8dc844b40 [00000000/00002b50/0x10200040] _vfprintf_r
Chain 0: 0x7fc8dc83dd00 [00000000/0000218c/0x10200040] _vfprintf_r
Chain 0: 0x7fc8dc83f5c0 [00000000/00002bf8/0x10200040] _vfprintf_r
Chain 0: 0x7fc8dc83f740 [00000000/00002c00/0x10200040] _vfprintf_r
Chain 0: 0x7fc8dc83f8c0 [00000000/00008b44/0x10200040] __sprint_r
Chain 0: 0x7fc8dc822f80 [00000000/00006330/0x10200040] __sfvwrite_r
Chain 0: 0x7fc8dc82dd00 [00000000/00006424/0x10200040] __sfvwrite_r
Chain 0: 0x7fc8dc82e440 [00000000/00007280/0x10200040] memchr
Chain 0: 0x7fc8dc82f580 [00000000/00006694/0x10200040] __sfvwrite_r
Chain 0: 0x7fc8dc82ff00 [00000000/000074ac/0x10200040] memmove
Chain 0: 0x7fc8dc831580 [00000000/00006784/0x10200040] __sfvwrite_r
Chain 0: 0x7fc8dc82e440 [00000000/00007280/0x10200040] memchr
Chain 0: 0x7fc8dc82f580 [00000000/00006694/0x10200040] __sfvwrite_r
Chain 0: 0x7fc8dc82ff00 [00000000/000074ac/0x10200040] memmove
Chain 0: 0x7fc8dc831580 [00000000/00006784/0x10200040] __sfvwrite_r
Chain 0: 0x7fc8dc840b80 [00000000/00008b40/0x10200040] __sprint_r.part.0
Chain 0: 0x7fc8dc841180 [00000000/00002c08/0x10200040] _vfprintf_r
Chain 0: 0x7fc8dc841300 [00000000/000022f8/0x10200040] _vfprintf_r
Chain 0: 0x7fc8dc839880 [00000000/00001e54/0x10200040] _vfprintf_r
Chain 0: 0x7fc8dc842000 [00000000/000020d4/0x10200040] _vfprintf_r
Chain 0: 0x7fc8dc83f8c0 [00000000/00008b44/0x10200040] __sprint_r
Chain 0: 0x7fc8dc822f80 [00000000/00006330/0x10200040] __sfvwrite_r
Chain 0: 0x7fc8dc82dd00 [00000000/00006424/0x10200040] __sfvwrite_r
Chain 0: 0x7fc8dc82e440 [00000000/00007280/0x10200040] memchr
Chain 0: 0x7fc8dc82f580 [00000000/00006694/0x10200040] __sfvwrite_r
Chain 0: 0x7fc8dc82ff00 [00000000/000074ac/0x10200040] memmove
Chain 0: 0x7fc8dc831580 [00000000/00006784/0x10200040] __sfvwrite_r
Chain 0: 0x7fc8dc832940 [00000000/00005b7c/0x10200040] _fflush_r
Chain 0: 0x7fc8dc833b40 [00000000/000089f4/0x10200040] __swrite
Chain 0: 0x7fc8dc834140 [00000000/00009e70/0x10200040] _write_r
Chain 0: 0x7fc8dc834480 [00000000/0000b018/0x10200040] _write
Chain 0: 0x7fc8dc816380 [00000000/0000ad4c/0x10200040] findslot
Chain 0: 0x7fc8dc834740 [00000000/0000b02c/0x10200040] _write
Trace 0: 0x7fc8dc834b40 [00000000/0000b054/0x10200040] _write
Chain 0: 0x7fc8dc835340 [00000000/00009e98/0x10200040] _write_r
Chain 0: 0x7fc8dc835740 [00000000/00008a30/0x10200040] __swrite
Chain 0: 0x7fc8dc835a40 [00000000/00005ac8/0x10200040] __sflush_r
Chain 0: 0x7fc8dc836080 [00000000/00006764/0x10200040] __sfvwrite_r
Chain 0: 0x7fc8dc840b80 [00000000/00008b40/0x10200040] __sprint_r.part.0
Chain 0: 0x7fc8dc842280 [00000000/000020ec/0x10200040] _vfprintf_r
Chain 0: 0x7fc8dc842900 [00000000/00001c2c/0x10200040] printf
----------------
IN: print_v1_info
0x000015f8:  e51b3020  ldr      r3, [fp, #-0x20]
0x000015fc:  e2833070  add      r3, r3, #0x70
0x00001600:  e1a00003  mov      r0, r3
0x00001604:  ebfffc3a  bl       #0x6f4

Trace 0: 0x7fc8dc847d40 [00000000/000015f8/0x10200040] print_v1_info
Chain 0: 0x7fc8dc842f40 [00000000/000006f4/0x10200040] volatile_read32
----------------
IN: print_v1_info
0x00001608:  e1a03000  mov      r3, r0
0x0000160c:  e1a01003  mov      r1, r3
0x00001610:  e59f0050  ldr      r0, [pc, #0x50]
0x00001614:  eb000179  bl       #0x1c00

Trace 0: 0x7fc8dc847ec0 [00000000/00001608/0x10200040] print_v1_info
Chain 0: 0x7fc8dc837c40 [00000000/00001c00/0x10200040] printf
Chain 0: 0x7fc8dc838580 [00000000/00006914/0x10200040] _localeconv_r
Chain 0: 0x7fc8dc838700 [00000000/00001d80/0x10200040] _vfprintf_r
Chain 0: 0x7fc8dc8388c0 [00000000/00001d90/0x10200040] _vfprintf_r
Chain 0: 0x7fc8dc843f80 [00000000/0000238c/0x10200040] _vfprintf_r
Chain 0: 0x7fc8dc844280 [00000000/0000267c/0x10200040] _vfprintf_r
Chain 0: 0x7fc8dc844640 [00000000/00003278/0x10200040] _vfprintf_r
Chain 0: 0x7fc8dc844740 [00000000/000023bc/0x10200040] _vfprintf_r
Chain 0: 0x7fc8dc844880 [00000000/0000283c/0x10200040] _vfprintf_r
Chain 0: 0x7fc8dc844980 [00000000/00002130/0x10200040] _vfprintf_r
Chain 0: 0x7fc8dc844b40 [00000000/00002b50/0x10200040] _vfprintf_r
Chain 0: 0x7fc8dc83dd00 [00000000/0000218c/0x10200040] _vfprintf_r
Chain 0: 0x7fc8dc83f5c0 [00000000/00002bf8/0x10200040] _vfprintf_r
Chain 0: 0x7fc8dc83f740 [00000000/00002c00/0x10200040] _vfprintf_r
Chain 0: 0x7fc8dc83f8c0 [00000000/00008b44/0x10200040] __sprint_r
Chain 0: 0x7fc8dc822f80 [00000000/00006330/0x10200040] __sfvwrite_r
Chain 0: 0x7fc8dc82dd00 [00000000/00006424/0x10200040] __sfvwrite_r
Chain 0: 0x7fc8dc82e440 [00000000/00007280/0x10200040] memchr
Chain 0: 0x7fc8dc82f580 [00000000/00006694/0x10200040] __sfvwrite_r
Chain 0: 0x7fc8dc82ff00 [00000000/000074ac/0x10200040] memmove
Chain 0: 0x7fc8dc831580 [00000000/00006784/0x10200040] __sfvwrite_r
Chain 0: 0x7fc8dc82e440 [00000000/00007280/0x10200040] memchr
Chain 0: 0x7fc8dc82f580 [00000000/00006694/0x10200040] __sfvwrite_r
Chain 0: 0x7fc8dc82ff00 [00000000/000074ac/0x10200040] memmove
Chain 0: 0x7fc8dc831580 [00000000/00006784/0x10200040] __sfvwrite_r
Chain 0: 0x7fc8dc840b80 [00000000/00008b40/0x10200040] __sprint_r.part.0
Chain 0: 0x7fc8dc841180 [00000000/00002c08/0x10200040] _vfprintf_r
Chain 0: 0x7fc8dc841300 [00000000/000022f8/0x10200040] _vfprintf_r
Chain 0: 0x7fc8dc839880 [00000000/00001e54/0x10200040] _vfprintf_r
Chain 0: 0x7fc8dc842000 [00000000/000020d4/0x10200040] _vfprintf_r
Chain 0: 0x7fc8dc83f8c0 [00000000/00008b44/0x10200040] __sprint_r
Chain 0: 0x7fc8dc822f80 [00000000/00006330/0x10200040] __sfvwrite_r
Chain 0: 0x7fc8dc82dd00 [00000000/00006424/0x10200040] __sfvwrite_r
Chain 0: 0x7fc8dc82e440 [00000000/00007280/0x10200040] memchr
Chain 0: 0x7fc8dc82f580 [00000000/00006694/0x10200040] __sfvwrite_r
Chain 0: 0x7fc8dc82ff00 [00000000/000074ac/0x10200040] memmove
Chain 0: 0x7fc8dc831580 [00000000/00006784/0x10200040] __sfvwrite_r
Chain 0: 0x7fc8dc832940 [00000000/00005b7c/0x10200040] _fflush_r
Chain 0: 0x7fc8dc833b40 [00000000/000089f4/0x10200040] __swrite
Chain 0: 0x7fc8dc834140 [00000000/00009e70/0x10200040] _write_r
Chain 0: 0x7fc8dc834480 [00000000/0000b018/0x10200040] _write
Chain 0: 0x7fc8dc816380 [00000000/0000ad4c/0x10200040] findslot
Chain 0: 0x7fc8dc834740 [00000000/0000b02c/0x10200040] _write
Trace 0: 0x7fc8dc834b40 [00000000/0000b054/0x10200040] _write
Chain 0: 0x7fc8dc835340 [00000000/00009e98/0x10200040] _write_r
Chain 0: 0x7fc8dc835740 [00000000/00008a30/0x10200040] __swrite
Chain 0: 0x7fc8dc835a40 [00000000/00005ac8/0x10200040] __sflush_r
Chain 0: 0x7fc8dc836080 [00000000/00006764/0x10200040] __sfvwrite_r
Chain 0: 0x7fc8dc840b80 [00000000/00008b40/0x10200040] __sprint_r.part.0
Chain 0: 0x7fc8dc842280 [00000000/000020ec/0x10200040] _vfprintf_r
Chain 0: 0x7fc8dc842900 [00000000/00001c2c/0x10200040] printf
----------------
IN: print_v1_info
0x00001618:  e51b3020  ldr      r3, [fp, #-0x20]
0x0000161c:  e28330fc  add      r3, r3, #0xfc
0x00001620:  e1a00003  mov      r0, r3
0x00001624:  ebfffc32  bl       #0x6f4

Trace 0: 0x7fc8dc848040 [00000000/00001618/0x10200040] print_v1_info
Chain 0: 0x7fc8dc842f40 [00000000/000006f4/0x10200040] volatile_read32
----------------
IN: print_v1_info
0x00001628:  e1a03000  mov      r3, r0
0x0000162c:  e1a01003  mov      r1, r3
0x00001630:  e59f0034  ldr      r0, [pc, #0x34]
0x00001634:  eb000171  bl       #0x1c00

Trace 0: 0x7fc8dc8481c0 [00000000/00001628/0x10200040] print_v1_info
Chain 0: 0x7fc8dc837c40 [00000000/00001c00/0x10200040] printf
Chain 0: 0x7fc8dc838580 [00000000/00006914/0x10200040] _localeconv_r
Chain 0: 0x7fc8dc838700 [00000000/00001d80/0x10200040] _vfprintf_r
Chain 0: 0x7fc8dc8388c0 [00000000/00001d90/0x10200040] _vfprintf_r
Chain 0: 0x7fc8dc843f80 [00000000/0000238c/0x10200040] _vfprintf_r
Chain 0: 0x7fc8dc844280 [00000000/0000267c/0x10200040] _vfprintf_r
Chain 0: 0x7fc8dc844640 [00000000/00003278/0x10200040] _vfprintf_r
Chain 0: 0x7fc8dc844740 [00000000/000023bc/0x10200040] _vfprintf_r
Chain 0: 0x7fc8dc844880 [00000000/0000283c/0x10200040] _vfprintf_r
Chain 0: 0x7fc8dc844980 [00000000/00002130/0x10200040] _vfprintf_r
Chain 0: 0x7fc8dc844b40 [00000000/00002b50/0x10200040] _vfprintf_r
Chain 0: 0x7fc8dc83dd00 [00000000/0000218c/0x10200040] _vfprintf_r
Chain 0: 0x7fc8dc83f5c0 [00000000/00002bf8/0x10200040] _vfprintf_r
Chain 0: 0x7fc8dc83f740 [00000000/00002c00/0x10200040] _vfprintf_r
Chain 0: 0x7fc8dc83f8c0 [00000000/00008b44/0x10200040] __sprint_r
Chain 0: 0x7fc8dc822f80 [00000000/00006330/0x10200040] __sfvwrite_r
Chain 0: 0x7fc8dc82dd00 [00000000/00006424/0x10200040] __sfvwrite_r
Chain 0: 0x7fc8dc82e440 [00000000/00007280/0x10200040] memchr
Chain 0: 0x7fc8dc82f580 [00000000/00006694/0x10200040] __sfvwrite_r
Chain 0: 0x7fc8dc82ff00 [00000000/000074ac/0x10200040] memmove
Chain 0: 0x7fc8dc831580 [00000000/00006784/0x10200040] __sfvwrite_r
Chain 0: 0x7fc8dc82e440 [00000000/00007280/0x10200040] memchr
Chain 0: 0x7fc8dc82f580 [00000000/00006694/0x10200040] __sfvwrite_r
Chain 0: 0x7fc8dc82ff00 [00000000/000074ac/0x10200040] memmove
Chain 0: 0x7fc8dc831580 [00000000/00006784/0x10200040] __sfvwrite_r
Chain 0: 0x7fc8dc840b80 [00000000/00008b40/0x10200040] __sprint_r.part.0
Chain 0: 0x7fc8dc841180 [00000000/00002c08/0x10200040] _vfprintf_r
Chain 0: 0x7fc8dc841300 [00000000/000022f8/0x10200040] _vfprintf_r
Chain 0: 0x7fc8dc839880 [00000000/00001e54/0x10200040] _vfprintf_r
Chain 0: 0x7fc8dc842000 [00000000/000020d4/0x10200040] _vfprintf_r
Chain 0: 0x7fc8dc83f8c0 [00000000/00008b44/0x10200040] __sprint_r
Chain 0: 0x7fc8dc822f80 [00000000/00006330/0x10200040] __sfvwrite_r
Chain 0: 0x7fc8dc82dd00 [00000000/00006424/0x10200040] __sfvwrite_r
Chain 0: 0x7fc8dc82e440 [00000000/00007280/0x10200040] memchr
Chain 0: 0x7fc8dc82f580 [00000000/00006694/0x10200040] __sfvwrite_r
Chain 0: 0x7fc8dc82ff00 [00000000/000074ac/0x10200040] memmove
Chain 0: 0x7fc8dc831580 [00000000/00006784/0x10200040] __sfvwrite_r
Chain 0: 0x7fc8dc832940 [00000000/00005b7c/0x10200040] _fflush_r
Chain 0: 0x7fc8dc833b40 [00000000/000089f4/0x10200040] __swrite
Chain 0: 0x7fc8dc834140 [00000000/00009e70/0x10200040] _write_r
Chain 0: 0x7fc8dc834480 [00000000/0000b018/0x10200040] _write
Chain 0: 0x7fc8dc816380 [00000000/0000ad4c/0x10200040] findslot
Chain 0: 0x7fc8dc834740 [00000000/0000b02c/0x10200040] _write
Trace 0: 0x7fc8dc834b40 [00000000/0000b054/0x10200040] _write
Chain 0: 0x7fc8dc835340 [00000000/00009e98/0x10200040] _write_r
Chain 0: 0x7fc8dc835740 [00000000/00008a30/0x10200040] __swrite
Chain 0: 0x7fc8dc835a40 [00000000/00005ac8/0x10200040] __sflush_r
Chain 0: 0x7fc8dc836080 [00000000/00006764/0x10200040] __sfvwrite_r
Chain 0: 0x7fc8dc840b80 [00000000/00008b40/0x10200040] __sprint_r.part.0
Chain 0: 0x7fc8dc842280 [00000000/000020ec/0x10200040] _vfprintf_r
Chain 0: 0x7fc8dc842900 [00000000/00001c2c/0x10200040] printf
----------------
IN: print_v1_info
0x00001638:  e1a00000  mov      r0, r0
0x0000163c:  e24bd004  sub      sp, fp, #4
0x00001640:  e8bd4800  pop      {fp, lr}
0x00001644:  e12fff1e  bx       lr

Trace 0: 0x7fc8dc848340 [00000000/00001638/0x10200040] print_v1_info
----------------
IN: virtio_init
0x000016c8:  ea000015  b        #0x1724

Trace 0: 0x7fc8dc848540 [00000000/000016c8/0x10200040] virtio_init
----------------
IN: virtio_init
0x00001724:  e51b3008  ldr      r3, [fp, #-8]
0x00001728:  e2833008  add      r3, r3, #8
0x0000172c:  e1a00003  mov      r0, r3
0x00001730:  ebfffbef  bl       #0x6f4

Linking TBs 0x7fc8dc848540 [000016c8] index 0 -> 0x7fc8dc848640 [00001724]
Trace 0: 0x7fc8dc848640 [00000000/00001724/0x10200040] virtio_init
Chain 0: 0x7fc8dc842f40 [00000000/000006f4/0x10200040] volatile_read32
----------------
IN: virtio_init
0x00001734:  e1a03000  mov      r3, r0
0x00001738:  e3530001  cmp      r3, #1
0x0000173c:  0a00000c  beq      #0x1774

Trace 0: 0x7fc8dc8487c0 [00000000/00001734/0x10200040] virtio_init
----------------
IN: virtio_init
0x00001774:  e51b3008  ldr      r3, [fp, #-8]
0x00001778:  e2833008  add      r3, r3, #8
0x0000177c:  e1a00003  mov      r0, r3
0x00001780:  ebfffbdb  bl       #0x6f4

Linking TBs 0x7fc8dc8487c0 [00001734] index 0 -> 0x7fc8dc848940 [00001774]
Trace 0: 0x7fc8dc848940 [00000000/00001774/0x10200040] virtio_init
Chain 0: 0x7fc8dc842f40 [00000000/000006f4/0x10200040] volatile_read32
----------------
IN: virtio_init
0x00001784:  e1a03000  mov      r3, r0
0x00001788:  e1a01003  mov      r1, r3
0x0000178c:  e59f0040  ldr      r0, [pc, #0x40]
0x00001790:  eb00011a  bl       #0x1c00

Trace 0: 0x7fc8dc848ac0 [00000000/00001784/0x10200040] virtio_init
Chain 0: 0x7fc8dc837c40 [00000000/00001c00/0x10200040] printf
Chain 0: 0x7fc8dc838580 [00000000/00006914/0x10200040] _localeconv_r
Chain 0: 0x7fc8dc838700 [00000000/00001d80/0x10200040] _vfprintf_r
Chain 0: 0x7fc8dc8388c0 [00000000/00001d90/0x10200040] _vfprintf_r
Chain 0: 0x7fc8dc843f80 [00000000/0000238c/0x10200040] _vfprintf_r
Chain 0: 0x7fc8dc844280 [00000000/0000267c/0x10200040] _vfprintf_r
Chain 0: 0x7fc8dc844640 [00000000/00003278/0x10200040] _vfprintf_r
Chain 0: 0x7fc8dc844740 [00000000/000023bc/0x10200040] _vfprintf_r
Chain 0: 0x7fc8dc844880 [00000000/0000283c/0x10200040] _vfprintf_r
Chain 0: 0x7fc8dc844980 [00000000/00002130/0x10200040] _vfprintf_r
Chain 0: 0x7fc8dc844b40 [00000000/00002b50/0x10200040] _vfprintf_r
Chain 0: 0x7fc8dc83dd00 [00000000/0000218c/0x10200040] _vfprintf_r
Chain 0: 0x7fc8dc83f5c0 [00000000/00002bf8/0x10200040] _vfprintf_r
Chain 0: 0x7fc8dc83f740 [00000000/00002c00/0x10200040] _vfprintf_r
Chain 0: 0x7fc8dc83f8c0 [00000000/00008b44/0x10200040] __sprint_r
Chain 0: 0x7fc8dc822f80 [00000000/00006330/0x10200040] __sfvwrite_r
Chain 0: 0x7fc8dc82dd00 [00000000/00006424/0x10200040] __sfvwrite_r
Chain 0: 0x7fc8dc82e440 [00000000/00007280/0x10200040] memchr
Chain 0: 0x7fc8dc82f580 [00000000/00006694/0x10200040] __sfvwrite_r
Chain 0: 0x7fc8dc82ff00 [00000000/000074ac/0x10200040] memmove
Linking TBs 0x7fc8dc830ec0 [000075a4] index 0 -> 0x7fc8dc830ec0 [000075a4]
Trace 0: 0x7fc8dc830ec0 [00000000/000075a4/0x10200040] memmove
Chain 0: 0x7fc8dc831580 [00000000/00006784/0x10200040] __sfvwrite_r
Chain 0: 0x7fc8dc82e440 [00000000/00007280/0x10200040] memchr
Chain 0: 0x7fc8dc82f580 [00000000/00006694/0x10200040] __sfvwrite_r
Chain 0: 0x7fc8dc82ff00 [00000000/000074ac/0x10200040] memmove
Chain 0: 0x7fc8dc831580 [00000000/00006784/0x10200040] __sfvwrite_r
Chain 0: 0x7fc8dc840b80 [00000000/00008b40/0x10200040] __sprint_r.part.0
Chain 0: 0x7fc8dc841180 [00000000/00002c08/0x10200040] _vfprintf_r
Chain 0: 0x7fc8dc841300 [00000000/000022f8/0x10200040] _vfprintf_r
Chain 0: 0x7fc8dc839880 [00000000/00001e54/0x10200040] _vfprintf_r
Chain 0: 0x7fc8dc842000 [00000000/000020d4/0x10200040] _vfprintf_r
Chain 0: 0x7fc8dc83f8c0 [00000000/00008b44/0x10200040] __sprint_r
Chain 0: 0x7fc8dc822f80 [00000000/00006330/0x10200040] __sfvwrite_r
Chain 0: 0x7fc8dc82dd00 [00000000/00006424/0x10200040] __sfvwrite_r
Chain 0: 0x7fc8dc82e440 [00000000/00007280/0x10200040] memchr
Linking TBs 0x7fc8dc82ee00 [00007340] index 0 -> 0x7fc8dc831c00 [000072e4]
Trace 0: 0x7fc8dc831c00 [00000000/000072e4/0x10200040] memchr
Linking TBs 0x7fc8dc837040 [000072fc] index 0 -> 0x7fc8dc82f300 [0000731c]
Trace 0: 0x7fc8dc82f300 [00000000/0000731c/0x10200040] memchr
Chain 0: 0x7fc8dc82f580 [00000000/00006694/0x10200040] __sfvwrite_r
Chain 0: 0x7fc8dc82ff00 [00000000/000074ac/0x10200040] memmove
Chain 0: 0x7fc8dc831580 [00000000/00006784/0x10200040] __sfvwrite_r
Chain 0: 0x7fc8dc832940 [00000000/00005b7c/0x10200040] _fflush_r
Chain 0: 0x7fc8dc833b40 [00000000/000089f4/0x10200040] __swrite
Chain 0: 0x7fc8dc834140 [00000000/00009e70/0x10200040] _write_r
Chain 0: 0x7fc8dc834480 [00000000/0000b018/0x10200040] _write
Chain 0: 0x7fc8dc816380 [00000000/0000ad4c/0x10200040] findslot
Chain 0: 0x7fc8dc834740 [00000000/0000b02c/0x10200040] _write
Trace 0: 0x7fc8dc834b40 [00000000/0000b054/0x10200040] _write
Chain 0: 0x7fc8dc835340 [00000000/00009e98/0x10200040] _write_r
Chain 0: 0x7fc8dc835740 [00000000/00008a30/0x10200040] __swrite
Chain 0: 0x7fc8dc835a40 [00000000/00005ac8/0x10200040] __sflush_r
Chain 0: 0x7fc8dc836080 [00000000/00006764/0x10200040] __sfvwrite_r
Chain 0: 0x7fc8dc840b80 [00000000/00008b40/0x10200040] __sprint_r.part.0
Chain 0: 0x7fc8dc842280 [00000000/000020ec/0x10200040] _vfprintf_r
Chain 0: 0x7fc8dc842900 [00000000/00001c2c/0x10200040] printf
----------------
IN: virtio_init
0x00001794:  ea000007  b        #0x17b8

Trace 0: 0x7fc8dc848c40 [00000000/00001794/0x10200040] virtio_init
----------------
IN: virtio_init
0x000017b8:  e24bd004  sub      sp, fp, #4
0x000017bc:  e8bd4800  pop      {fp, lr}
0x000017c0:  e12fff1e  bx       lr

Linking TBs 0x7fc8dc848c40 [00001794] index 0 -> 0x7fc8dc848d40 [000017b8]
Trace 0: 0x7fc8dc848d40 [00000000/000017b8/0x10200040] virtio_init
----------------
IN: main
0x00001950:  e59f0050  ldr      r0, [pc, #0x50]
0x00001954:  ebffff45  bl       #0x1670

Trace 0: 0x7fc8dc848f00 [00000000/00001950/0x10200040] main
Chain 0: 0x7fc8dc842c00 [00000000/00001670/0x10200040] virtio_init
Chain 0: 0x7fc8dc842f40 [00000000/000006f4/0x10200040] volatile_read32
Chain 0: 0x7fc8dc843240 [00000000/00001698/0x10200040] virtio_init
Chain 0: 0x7fc8dc842f40 [00000000/000006f4/0x10200040] volatile_read32
Chain 0: 0x7fc8dc843a40 [00000000/00001470/0x10200040] print_v1_info
Chain 0: 0x7fc8dc837c40 [00000000/00001c00/0x10200040] printf
Chain 0: 0x7fc8dc838580 [00000000/00006914/0x10200040] _localeconv_r
Chain 0: 0x7fc8dc838700 [00000000/00001d80/0x10200040] _vfprintf_r
Chain 0: 0x7fc8dc8388c0 [00000000/00001d90/0x10200040] _vfprintf_r
Chain 0: 0x7fc8dc843f80 [00000000/0000238c/0x10200040] _vfprintf_r
Chain 0: 0x7fc8dc844280 [00000000/0000267c/0x10200040] _vfprintf_r
Chain 0: 0x7fc8dc844640 [00000000/00003278/0x10200040] _vfprintf_r
Chain 0: 0x7fc8dc844740 [00000000/000023bc/0x10200040] _vfprintf_r
Chain 0: 0x7fc8dc844880 [00000000/0000283c/0x10200040] _vfprintf_r
Chain 0: 0x7fc8dc844980 [00000000/00002130/0x10200040] _vfprintf_r
Chain 0: 0x7fc8dc844b40 [00000000/00002b50/0x10200040] _vfprintf_r
Chain 0: 0x7fc8dc83dd00 [00000000/0000218c/0x10200040] _vfprintf_r
Chain 0: 0x7fc8dc83f5c0 [00000000/00002bf8/0x10200040] _vfprintf_r
Chain 0: 0x7fc8dc83f740 [00000000/00002c00/0x10200040] _vfprintf_r
Chain 0: 0x7fc8dc83f8c0 [00000000/00008b44/0x10200040] __sprint_r
Chain 0: 0x7fc8dc822f80 [00000000/00006330/0x10200040] __sfvwrite_r
Chain 0: 0x7fc8dc82dd00 [00000000/00006424/0x10200040] __sfvwrite_r
Chain 0: 0x7fc8dc82e440 [00000000/00007280/0x10200040] memchr
Chain 0: 0x7fc8dc82f580 [00000000/00006694/0x10200040] __sfvwrite_r
Chain 0: 0x7fc8dc82ff00 [00000000/000074ac/0x10200040] memmove
Chain 0: 0x7fc8dc831580 [00000000/00006784/0x10200040] __sfvwrite_r
Chain 0: 0x7fc8dc82e440 [00000000/00007280/0x10200040] memchr
Chain 0: 0x7fc8dc82f580 [00000000/00006694/0x10200040] __sfvwrite_r
Chain 0: 0x7fc8dc82ff00 [00000000/000074ac/0x10200040] memmove
Chain 0: 0x7fc8dc831580 [00000000/00006784/0x10200040] __sfvwrite_r
Chain 0: 0x7fc8dc840b80 [00000000/00008b40/0x10200040] __sprint_r.part.0
Chain 0: 0x7fc8dc841180 [00000000/00002c08/0x10200040] _vfprintf_r
Chain 0: 0x7fc8dc841300 [00000000/000022f8/0x10200040] _vfprintf_r
Chain 0: 0x7fc8dc839880 [00000000/00001e54/0x10200040] _vfprintf_r
Chain 0: 0x7fc8dc845640 [00000000/00002404/0x10200040] _vfprintf_r
Chain 0: 0x7fc8dc845ac0 [00000000/000036bc/0x10200040] _vfprintf_r
Chain 0: 0x7fc8dc814b00 [00000000/00001d00/0x10200040] strlen
Chain 0: 0x7fc8dc845c40 [00000000/000036c4/0x10200040] _vfprintf_r
Chain 0: 0x7fc8dc845d80 [00000000/00002450/0x10200040] _vfprintf_r
Chain 0: 0x7fc8dc846040 [00000000/000021a4/0x10200040] _vfprintf_r
Chain 0: 0x7fc8dc83f5c0 [00000000/00002bf8/0x10200040] _vfprintf_r
Chain 0: 0x7fc8dc83f740 [00000000/00002c00/0x10200040] _vfprintf_r
Chain 0: 0x7fc8dc83f8c0 [00000000/00008b44/0x10200040] __sprint_r
Chain 0: 0x7fc8dc822f80 [00000000/00006330/0x10200040] __sfvwrite_r
Chain 0: 0x7fc8dc82dd00 [00000000/00006424/0x10200040] __sfvwrite_r
Chain 0: 0x7fc8dc82e440 [00000000/00007280/0x10200040] memchr
Chain 0: 0x7fc8dc82f580 [00000000/00006694/0x10200040] __sfvwrite_r
Chain 0: 0x7fc8dc82ff00 [00000000/000074ac/0x10200040] memmove
Chain 0: 0x7fc8dc831580 [00000000/00006784/0x10200040] __sfvwrite_r
Chain 0: 0x7fc8dc82e440 [00000000/00007280/0x10200040] memchr
Chain 0: 0x7fc8dc82f580 [00000000/00006694/0x10200040] __sfvwrite_r
Chain 0: 0x7fc8dc82ff00 [00000000/000074ac/0x10200040] memmove
Chain 0: 0x7fc8dc831580 [00000000/00006784/0x10200040] __sfvwrite_r
Chain 0: 0x7fc8dc840b80 [00000000/00008b40/0x10200040] __sprint_r.part.0
Chain 0: 0x7fc8dc841180 [00000000/00002c08/0x10200040] _vfprintf_r
Chain 0: 0x7fc8dc841300 [00000000/000022f8/0x10200040] _vfprintf_r
Chain 0: 0x7fc8dc839880 [00000000/00001e54/0x10200040] _vfprintf_r
Chain 0: 0x7fc8dc842000 [00000000/000020d4/0x10200040] _vfprintf_r
Chain 0: 0x7fc8dc83f8c0 [00000000/00008b44/0x10200040] __sprint_r
Chain 0: 0x7fc8dc822f80 [00000000/00006330/0x10200040] __sfvwrite_r
Chain 0: 0x7fc8dc82dd00 [00000000/00006424/0x10200040] __sfvwrite_r
Chain 0: 0x7fc8dc82e440 [00000000/00007280/0x10200040] memchr
Chain 0: 0x7fc8dc82f580 [00000000/00006694/0x10200040] __sfvwrite_r
Chain 0: 0x7fc8dc82ff00 [00000000/000074ac/0x10200040] memmove
Chain 0: 0x7fc8dc831580 [00000000/00006784/0x10200040] __sfvwrite_r
Chain 0: 0x7fc8dc832940 [00000000/00005b7c/0x10200040] _fflush_r
Chain 0: 0x7fc8dc833b40 [00000000/000089f4/0x10200040] __swrite
Chain 0: 0x7fc8dc834140 [00000000/00009e70/0x10200040] _write_r
Chain 0: 0x7fc8dc834480 [00000000/0000b018/0x10200040] _write
Chain 0: 0x7fc8dc816380 [00000000/0000ad4c/0x10200040] findslot
Chain 0: 0x7fc8dc834740 [00000000/0000b02c/0x10200040] _write
Trace 0: 0x7fc8dc834b40 [00000000/0000b054/0x10200040] _write
Chain 0: 0x7fc8dc835340 [00000000/00009e98/0x10200040] _write_r
Chain 0: 0x7fc8dc835740 [00000000/00008a30/0x10200040] __swrite
Chain 0: 0x7fc8dc835a40 [00000000/00005ac8/0x10200040] __sflush_r
Chain 0: 0x7fc8dc836080 [00000000/00006764/0x10200040] __sfvwrite_r
Chain 0: 0x7fc8dc840b80 [00000000/00008b40/0x10200040] __sprint_r.part.0
Chain 0: 0x7fc8dc842280 [00000000/000020ec/0x10200040] _vfprintf_r
Chain 0: 0x7fc8dc842900 [00000000/00001c2c/0x10200040] printf
Chain 0: 0x7fc8dc8462c0 [00000000/000014cc/0x10200040] print_v1_info
Chain 0: 0x7fc8dc842f40 [00000000/000006f4/0x10200040] volatile_read32
Chain 0: 0x7fc8dc846440 [00000000/000014dc/0x10200040] print_v1_info
Chain 0: 0x7fc8dc837c40 [00000000/00001c00/0x10200040] printf
Chain 0: 0x7fc8dc838580 [00000000/00006914/0x10200040] _localeconv_r
Chain 0: 0x7fc8dc838700 [00000000/00001d80/0x10200040] _vfprintf_r
Chain 0: 0x7fc8dc8388c0 [00000000/00001d90/0x10200040] _vfprintf_r
Chain 0: 0x7fc8dc843f80 [00000000/0000238c/0x10200040] _vfprintf_r
Chain 0: 0x7fc8dc844280 [00000000/0000267c/0x10200040] _vfprintf_r
Chain 0: 0x7fc8dc844640 [00000000/00003278/0x10200040] _vfprintf_r
Chain 0: 0x7fc8dc844740 [00000000/000023bc/0x10200040] _vfprintf_r
Chain 0: 0x7fc8dc844880 [00000000/0000283c/0x10200040] _vfprintf_r
Chain 0: 0x7fc8dc844980 [00000000/00002130/0x10200040] _vfprintf_r
Chain 0: 0x7fc8dc844b40 [00000000/00002b50/0x10200040] _vfprintf_r
Chain 0: 0x7fc8dc83dd00 [00000000/0000218c/0x10200040] _vfprintf_r
Chain 0: 0x7fc8dc83f5c0 [00000000/00002bf8/0x10200040] _vfprintf_r
Chain 0: 0x7fc8dc83f740 [00000000/00002c00/0x10200040] _vfprintf_r
Chain 0: 0x7fc8dc83f8c0 [00000000/00008b44/0x10200040] __sprint_r
Chain 0: 0x7fc8dc822f80 [00000000/00006330/0x10200040] __sfvwrite_r
Chain 0: 0x7fc8dc82dd00 [00000000/00006424/0x10200040] __sfvwrite_r
Chain 0: 0x7fc8dc82e440 [00000000/00007280/0x10200040] memchr
Chain 0: 0x7fc8dc82f580 [00000000/00006694/0x10200040] __sfvwrite_r
Chain 0: 0x7fc8dc82ff00 [00000000/000074ac/0x10200040] memmove
Chain 0: 0x7fc8dc831580 [00000000/00006784/0x10200040] __sfvwrite_r
Chain 0: 0x7fc8dc82e440 [00000000/00007280/0x10200040] memchr
Chain 0: 0x7fc8dc82f580 [00000000/00006694/0x10200040] __sfvwrite_r
Chain 0: 0x7fc8dc82ff00 [00000000/000074ac/0x10200040] memmove
Chain 0: 0x7fc8dc831580 [00000000/00006784/0x10200040] __sfvwrite_r
Chain 0: 0x7fc8dc840b80 [00000000/00008b40/0x10200040] __sprint_r.part.0
Chain 0: 0x7fc8dc841180 [00000000/00002c08/0x10200040] _vfprintf_r
Chain 0: 0x7fc8dc841300 [00000000/000022f8/0x10200040] _vfprintf_r
Chain 0: 0x7fc8dc839880 [00000000/00001e54/0x10200040] _vfprintf_r
Chain 0: 0x7fc8dc842000 [00000000/000020d4/0x10200040] _vfprintf_r
Chain 0: 0x7fc8dc83f8c0 [00000000/00008b44/0x10200040] __sprint_r
Chain 0: 0x7fc8dc822f80 [00000000/00006330/0x10200040] __sfvwrite_r
Chain 0: 0x7fc8dc82dd00 [00000000/00006424/0x10200040] __sfvwrite_r
Chain 0: 0x7fc8dc82e440 [00000000/00007280/0x10200040] memchr
Chain 0: 0x7fc8dc82f580 [00000000/00006694/0x10200040] __sfvwrite_r
Chain 0: 0x7fc8dc82ff00 [00000000/000074ac/0x10200040] memmove
Chain 0: 0x7fc8dc831580 [00000000/00006784/0x10200040] __sfvwrite_r
Chain 0: 0x7fc8dc832940 [00000000/00005b7c/0x10200040] _fflush_r
Chain 0: 0x7fc8dc833b40 [00000000/000089f4/0x10200040] __swrite
Chain 0: 0x7fc8dc834140 [00000000/00009e70/0x10200040] _write_r
Chain 0: 0x7fc8dc834480 [00000000/0000b018/0x10200040] _write
Chain 0: 0x7fc8dc816380 [00000000/0000ad4c/0x10200040] findslot
Chain 0: 0x7fc8dc834740 [00000000/0000b02c/0x10200040] _write
Trace 0: 0x7fc8dc834b40 [00000000/0000b054/0x10200040] _write
Chain 0: 0x7fc8dc835340 [00000000/00009e98/0x10200040] _write_r
Chain 0: 0x7fc8dc835740 [00000000/00008a30/0x10200040] __swrite
Chain 0: 0x7fc8dc835a40 [00000000/00005ac8/0x10200040] __sflush_r
Chain 0: 0x7fc8dc836080 [00000000/00006764/0x10200040] __sfvwrite_r
Chain 0: 0x7fc8dc840b80 [00000000/00008b40/0x10200040] __sprint_r.part.0
Chain 0: 0x7fc8dc842280 [00000000/000020ec/0x10200040] _vfprintf_r
Chain 0: 0x7fc8dc842900 [00000000/00001c2c/0x10200040] printf
Chain 0: 0x7fc8dc8465c0 [00000000/000014ec/0x10200040] print_v1_info
Chain 0: 0x7fc8dc842f40 [00000000/000006f4/0x10200040] volatile_read32
Chain 0: 0x7fc8dc846740 [00000000/000014fc/0x10200040] print_v1_info
Chain 0: 0x7fc8dc837c40 [00000000/00001c00/0x10200040] printf
Chain 0: 0x7fc8dc838580 [00000000/00006914/0x10200040] _localeconv_r
Chain 0: 0x7fc8dc838700 [00000000/00001d80/0x10200040] _vfprintf_r
Chain 0: 0x7fc8dc8388c0 [00000000/00001d90/0x10200040] _vfprintf_r
Chain 0: 0x7fc8dc843f80 [00000000/0000238c/0x10200040] _vfprintf_r
Chain 0: 0x7fc8dc844280 [00000000/0000267c/0x10200040] _vfprintf_r
Chain 0: 0x7fc8dc844640 [00000000/00003278/0x10200040] _vfprintf_r
Chain 0: 0x7fc8dc844740 [00000000/000023bc/0x10200040] _vfprintf_r
Chain 0: 0x7fc8dc844880 [00000000/0000283c/0x10200040] _vfprintf_r
Chain 0: 0x7fc8dc844980 [00000000/00002130/0x10200040] _vfprintf_r
Chain 0: 0x7fc8dc844b40 [00000000/00002b50/0x10200040] _vfprintf_r
Chain 0: 0x7fc8dc83dd00 [00000000/0000218c/0x10200040] _vfprintf_r
Chain 0: 0x7fc8dc83f5c0 [00000000/00002bf8/0x10200040] _vfprintf_r
Chain 0: 0x7fc8dc83f740 [00000000/00002c00/0x10200040] _vfprintf_r
Chain 0: 0x7fc8dc83f8c0 [00000000/00008b44/0x10200040] __sprint_r
Chain 0: 0x7fc8dc822f80 [00000000/00006330/0x10200040] __sfvwrite_r
Chain 0: 0x7fc8dc82dd00 [00000000/00006424/0x10200040] __sfvwrite_r
Chain 0: 0x7fc8dc82e440 [00000000/00007280/0x10200040] memchr
Chain 0: 0x7fc8dc82f580 [00000000/00006694/0x10200040] __sfvwrite_r
Chain 0: 0x7fc8dc82ff00 [00000000/000074ac/0x10200040] memmove
Chain 0: 0x7fc8dc831580 [00000000/00006784/0x10200040] __sfvwrite_r
Chain 0: 0x7fc8dc82e440 [00000000/00007280/0x10200040] memchr
Chain 0: 0x7fc8dc82f580 [00000000/00006694/0x10200040] __sfvwrite_r
Chain 0: 0x7fc8dc82ff00 [00000000/000074ac/0x10200040] memmove
Chain 0: 0x7fc8dc831580 [00000000/00006784/0x10200040] __sfvwrite_r
Chain 0: 0x7fc8dc840b80 [00000000/00008b40/0x10200040] __sprint_r.part.0
Chain 0: 0x7fc8dc841180 [00000000/00002c08/0x10200040] _vfprintf_r
Chain 0: 0x7fc8dc841300 [00000000/000022f8/0x10200040] _vfprintf_r
Chain 0: 0x7fc8dc839880 [00000000/00001e54/0x10200040] _vfprintf_r
Chain 0: 0x7fc8dc842000 [00000000/000020d4/0x10200040] _vfprintf_r
Chain 0: 0x7fc8dc83f8c0 [00000000/00008b44/0x10200040] __sprint_r
Chain 0: 0x7fc8dc822f80 [00000000/00006330/0x10200040] __sfvwrite_r
Chain 0: 0x7fc8dc82dd00 [00000000/00006424/0x10200040] __sfvwrite_r
Chain 0: 0x7fc8dc82e440 [00000000/00007280/0x10200040] memchr
Chain 0: 0x7fc8dc82f580 [00000000/00006694/0x10200040] __sfvwrite_r
Chain 0: 0x7fc8dc82ff00 [00000000/000074ac/0x10200040] memmove
Chain 0: 0x7fc8dc831580 [00000000/00006784/0x10200040] __sfvwrite_r
Chain 0: 0x7fc8dc832940 [00000000/00005b7c/0x10200040] _fflush_r
Chain 0: 0x7fc8dc833b40 [00000000/000089f4/0x10200040] __swrite
Chain 0: 0x7fc8dc834140 [00000000/00009e70/0x10200040] _write_r
Chain 0: 0x7fc8dc834480 [00000000/0000b018/0x10200040] _write
Chain 0: 0x7fc8dc816380 [00000000/0000ad4c/0x10200040] findslot
Chain 0: 0x7fc8dc834740 [00000000/0000b02c/0x10200040] _write
Trace 0: 0x7fc8dc834b40 [00000000/0000b054/0x10200040] _write
Chain 0: 0x7fc8dc835340 [00000000/00009e98/0x10200040] _write_r
Chain 0: 0x7fc8dc835740 [00000000/00008a30/0x10200040] __swrite
Chain 0: 0x7fc8dc835a40 [00000000/00005ac8/0x10200040] __sflush_r
Chain 0: 0x7fc8dc836080 [00000000/00006764/0x10200040] __sfvwrite_r
Chain 0: 0x7fc8dc840b80 [00000000/00008b40/0x10200040] __sprint_r.part.0
Chain 0: 0x7fc8dc842280 [00000000/000020ec/0x10200040] _vfprintf_r
Chain 0: 0x7fc8dc842900 [00000000/00001c2c/0x10200040] printf
Chain 0: 0x7fc8dc8468c0 [00000000/0000150c/0x10200040] print_v1_info
Chain 0: 0x7fc8dc842f40 [00000000/000006f4/0x10200040] volatile_read32
Chain 0: 0x7fc8dc846a40 [00000000/0000151c/0x10200040] print_v1_info
Chain 0: 0x7fc8dc837c40 [00000000/00001c00/0x10200040] printf
Chain 0: 0x7fc8dc838580 [00000000/00006914/0x10200040] _localeconv_r
Chain 0: 0x7fc8dc838700 [00000000/00001d80/0x10200040] _vfprintf_r
Chain 0: 0x7fc8dc8388c0 [00000000/00001d90/0x10200040] _vfprintf_r
Chain 0: 0x7fc8dc843f80 [00000000/0000238c/0x10200040] _vfprintf_r
Chain 0: 0x7fc8dc844280 [00000000/0000267c/0x10200040] _vfprintf_r
Chain 0: 0x7fc8dc844640 [00000000/00003278/0x10200040] _vfprintf_r
Chain 0: 0x7fc8dc844740 [00000000/000023bc/0x10200040] _vfprintf_r
Chain 0: 0x7fc8dc844880 [00000000/0000283c/0x10200040] _vfprintf_r
Chain 0: 0x7fc8dc844980 [00000000/00002130/0x10200040] _vfprintf_r
Chain 0: 0x7fc8dc844b40 [00000000/00002b50/0x10200040] _vfprintf_r
Chain 0: 0x7fc8dc83dd00 [00000000/0000218c/0x10200040] _vfprintf_r
Chain 0: 0x7fc8dc83f5c0 [00000000/00002bf8/0x10200040] _vfprintf_r
Chain 0: 0x7fc8dc83f740 [00000000/00002c00/0x10200040] _vfprintf_r
Chain 0: 0x7fc8dc83f8c0 [00000000/00008b44/0x10200040] __sprint_r
Chain 0: 0x7fc8dc822f80 [00000000/00006330/0x10200040] __sfvwrite_r
Chain 0: 0x7fc8dc82dd00 [00000000/00006424/0x10200040] __sfvwrite_r
Chain 0: 0x7fc8dc82e440 [00000000/00007280/0x10200040] memchr
Chain 0: 0x7fc8dc82f580 [00000000/00006694/0x10200040] __sfvwrite_r
Chain 0: 0x7fc8dc82ff00 [00000000/000074ac/0x10200040] memmove
Chain 0: 0x7fc8dc831580 [00000000/00006784/0x10200040] __sfvwrite_r
Chain 0: 0x7fc8dc82e440 [00000000/00007280/0x10200040] memchr
Chain 0: 0x7fc8dc82f580 [00000000/00006694/0x10200040] __sfvwrite_r
Chain 0: 0x7fc8dc82ff00 [00000000/000074ac/0x10200040] memmove
Chain 0: 0x7fc8dc831580 [00000000/00006784/0x10200040] __sfvwrite_r
Chain 0: 0x7fc8dc840b80 [00000000/00008b40/0x10200040] __sprint_r.part.0
Chain 0: 0x7fc8dc841180 [00000000/00002c08/0x10200040] _vfprintf_r
Chain 0: 0x7fc8dc841300 [00000000/000022f8/0x10200040] _vfprintf_r
Chain 0: 0x7fc8dc839880 [00000000/00001e54/0x10200040] _vfprintf_r
Chain 0: 0x7fc8dc845640 [00000000/00002404/0x10200040] _vfprintf_r
Chain 0: 0x7fc8dc845ac0 [00000000/000036bc/0x10200040] _vfprintf_r
Chain 0: 0x7fc8dc814b00 [00000000/00001d00/0x10200040] strlen
Chain 0: 0x7fc8dc845c40 [00000000/000036c4/0x10200040] _vfprintf_r
Chain 0: 0x7fc8dc845d80 [00000000/00002450/0x10200040] _vfprintf_r
Chain 0: 0x7fc8dc846040 [00000000/000021a4/0x10200040] _vfprintf_r
Chain 0: 0x7fc8dc83f5c0 [00000000/00002bf8/0x10200040] _vfprintf_r
Chain 0: 0x7fc8dc83f740 [00000000/00002c00/0x10200040] _vfprintf_r
Chain 0: 0x7fc8dc83f8c0 [00000000/00008b44/0x10200040] __sprint_r
Chain 0: 0x7fc8dc822f80 [00000000/00006330/0x10200040] __sfvwrite_r
Chain 0: 0x7fc8dc82dd00 [00000000/00006424/0x10200040] __sfvwrite_r
Chain 0: 0x7fc8dc82e440 [00000000/00007280/0x10200040] memchr
Chain 0: 0x7fc8dc82f580 [00000000/00006694/0x10200040] __sfvwrite_r
Chain 0: 0x7fc8dc82ff00 [00000000/000074ac/0x10200040] memmove
Chain 0: 0x7fc8dc831580 [00000000/00006784/0x10200040] __sfvwrite_r
Chain 0: 0x7fc8dc82e440 [00000000/00007280/0x10200040] memchr
Chain 0: 0x7fc8dc82f580 [00000000/00006694/0x10200040] __sfvwrite_r
Chain 0: 0x7fc8dc82ff00 [00000000/000074ac/0x10200040] memmove
Chain 0: 0x7fc8dc831580 [00000000/00006784/0x10200040] __sfvwrite_r
Chain 0: 0x7fc8dc840b80 [00000000/00008b40/0x10200040] __sprint_r.part.0
Chain 0: 0x7fc8dc841180 [00000000/00002c08/0x10200040] _vfprintf_r
Chain 0: 0x7fc8dc841300 [00000000/000022f8/0x10200040] _vfprintf_r
Chain 0: 0x7fc8dc839880 [00000000/00001e54/0x10200040] _vfprintf_r
Chain 0: 0x7fc8dc842000 [00000000/000020d4/0x10200040] _vfprintf_r
Chain 0: 0x7fc8dc83f8c0 [00000000/00008b44/0x10200040] __sprint_r
Chain 0: 0x7fc8dc822f80 [00000000/00006330/0x10200040] __sfvwrite_r
Chain 0: 0x7fc8dc82dd00 [00000000/00006424/0x10200040] __sfvwrite_r
Chain 0: 0x7fc8dc82e440 [00000000/00007280/0x10200040] memchr
Chain 0: 0x7fc8dc82f580 [00000000/00006694/0x10200040] __sfvwrite_r
Chain 0: 0x7fc8dc82ff00 [00000000/000074ac/0x10200040] memmove
Chain 0: 0x7fc8dc831580 [00000000/00006784/0x10200040] __sfvwrite_r
Chain 0: 0x7fc8dc832940 [00000000/00005b7c/0x10200040] _fflush_r
Chain 0: 0x7fc8dc833b40 [00000000/000089f4/0x10200040] __swrite
Chain 0: 0x7fc8dc834140 [00000000/00009e70/0x10200040] _write_r
Chain 0: 0x7fc8dc834480 [00000000/0000b018/0x10200040] _write
Chain 0: 0x7fc8dc816380 [00000000/0000ad4c/0x10200040] findslot
Chain 0: 0x7fc8dc834740 [00000000/0000b02c/0x10200040] _write
Trace 0: 0x7fc8dc834b40 [00000000/0000b054/0x10200040] _write
Chain 0: 0x7fc8dc835340 [00000000/00009e98/0x10200040] _write_r
Chain 0: 0x7fc8dc835740 [00000000/00008a30/0x10200040] __swrite
Chain 0: 0x7fc8dc835a40 [00000000/00005ac8/0x10200040] __sflush_r
Chain 0: 0x7fc8dc836080 [00000000/00006764/0x10200040] __sfvwrite_r
Chain 0: 0x7fc8dc840b80 [00000000/00008b40/0x10200040] __sprint_r.part.0
Chain 0: 0x7fc8dc842280 [00000000/000020ec/0x10200040] _vfprintf_r
Chain 0: 0x7fc8dc842900 [00000000/00001c2c/0x10200040] printf
Chain 0: 0x7fc8dc846f80 [00000000/00001578/0x10200040] print_v1_info
Chain 0: 0x7fc8dc842f40 [00000000/000006f4/0x10200040] volatile_read32
Chain 0: 0x7fc8dc847100 [00000000/00001588/0x10200040] print_v1_info
Chain 0: 0x7fc8dc837c40 [00000000/00001c00/0x10200040] printf
Chain 0: 0x7fc8dc838580 [00000000/00006914/0x10200040] _localeconv_r
Chain 0: 0x7fc8dc838700 [00000000/00001d80/0x10200040] _vfprintf_r
Chain 0: 0x7fc8dc8388c0 [00000000/00001d90/0x10200040] _vfprintf_r
Chain 0: 0x7fc8dc843f80 [00000000/0000238c/0x10200040] _vfprintf_r
Chain 0: 0x7fc8dc844280 [00000000/0000267c/0x10200040] _vfprintf_r
Chain 0: 0x7fc8dc844640 [00000000/00003278/0x10200040] _vfprintf_r
Chain 0: 0x7fc8dc844740 [00000000/000023bc/0x10200040] _vfprintf_r
Chain 0: 0x7fc8dc844880 [00000000/0000283c/0x10200040] _vfprintf_r
Chain 0: 0x7fc8dc844980 [00000000/00002130/0x10200040] _vfprintf_r
Chain 0: 0x7fc8dc844b40 [00000000/00002b50/0x10200040] _vfprintf_r
Chain 0: 0x7fc8dc83dd00 [00000000/0000218c/0x10200040] _vfprintf_r
Chain 0: 0x7fc8dc83f5c0 [00000000/00002bf8/0x10200040] _vfprintf_r
Chain 0: 0x7fc8dc83f740 [00000000/00002c00/0x10200040] _vfprintf_r
Chain 0: 0x7fc8dc83f8c0 [00000000/00008b44/0x10200040] __sprint_r
Chain 0: 0x7fc8dc822f80 [00000000/00006330/0x10200040] __sfvwrite_r
Chain 0: 0x7fc8dc82dd00 [00000000/00006424/0x10200040] __sfvwrite_r
Chain 0: 0x7fc8dc82e440 [00000000/00007280/0x10200040] memchr
Chain 0: 0x7fc8dc82f580 [00000000/00006694/0x10200040] __sfvwrite_r
Chain 0: 0x7fc8dc82ff00 [00000000/000074ac/0x10200040] memmove
Chain 0: 0x7fc8dc831580 [00000000/00006784/0x10200040] __sfvwrite_r
Chain 0: 0x7fc8dc82e440 [00000000/00007280/0x10200040] memchr
Chain 0: 0x7fc8dc82f580 [00000000/00006694/0x10200040] __sfvwrite_r
Chain 0: 0x7fc8dc82ff00 [00000000/000074ac/0x10200040] memmove
Chain 0: 0x7fc8dc831580 [00000000/00006784/0x10200040] __sfvwrite_r
Chain 0: 0x7fc8dc840b80 [00000000/00008b40/0x10200040] __sprint_r.part.0
Chain 0: 0x7fc8dc841180 [00000000/00002c08/0x10200040] _vfprintf_r
Chain 0: 0x7fc8dc841300 [00000000/000022f8/0x10200040] _vfprintf_r
Chain 0: 0x7fc8dc839880 [00000000/00001e54/0x10200040] _vfprintf_r
Chain 0: 0x7fc8dc842000 [00000000/000020d4/0x10200040] _vfprintf_r
Chain 0: 0x7fc8dc83f8c0 [00000000/00008b44/0x10200040] __sprint_r
Chain 0: 0x7fc8dc822f80 [00000000/00006330/0x10200040] __sfvwrite_r
Chain 0: 0x7fc8dc82dd00 [00000000/00006424/0x10200040] __sfvwrite_r
Chain 0: 0x7fc8dc82e440 [00000000/00007280/0x10200040] memchr
Chain 0: 0x7fc8dc82f580 [00000000/00006694/0x10200040] __sfvwrite_r
Chain 0: 0x7fc8dc82ff00 [00000000/000074ac/0x10200040] memmove
Chain 0: 0x7fc8dc831580 [00000000/00006784/0x10200040] __sfvwrite_r
Chain 0: 0x7fc8dc832940 [00000000/00005b7c/0x10200040] _fflush_r
Chain 0: 0x7fc8dc833b40 [00000000/000089f4/0x10200040] __swrite
Chain 0: 0x7fc8dc834140 [00000000/00009e70/0x10200040] _write_r
Chain 0: 0x7fc8dc834480 [00000000/0000b018/0x10200040] _write
Chain 0: 0x7fc8dc816380 [00000000/0000ad4c/0x10200040] findslot
Chain 0: 0x7fc8dc834740 [00000000/0000b02c/0x10200040] _write
Trace 0: 0x7fc8dc834b40 [00000000/0000b054/0x10200040] _write
Chain 0: 0x7fc8dc835340 [00000000/00009e98/0x10200040] _write_r
Chain 0: 0x7fc8dc835740 [00000000/00008a30/0x10200040] __swrite
Chain 0: 0x7fc8dc835a40 [00000000/00005ac8/0x10200040] __sflush_r
Chain 0: 0x7fc8dc836080 [00000000/00006764/0x10200040] __sfvwrite_r
Chain 0: 0x7fc8dc840b80 [00000000/00008b40/0x10200040] __sprint_r.part.0
Chain 0: 0x7fc8dc842280 [00000000/000020ec/0x10200040] _vfprintf_r
Chain 0: 0x7fc8dc842900 [00000000/00001c2c/0x10200040] printf
Chain 0: 0x7fc8dc847440 [00000000/00001598/0x10200040] print_v1_info
Chain 0: 0x7fc8dc842f40 [00000000/000006f4/0x10200040] volatile_read32
Chain 0: 0x7fc8dc8475c0 [00000000/000015a8/0x10200040] print_v1_info
Chain 0: 0x7fc8dc837c40 [00000000/00001c00/0x10200040] printf
Chain 0: 0x7fc8dc838580 [00000000/00006914/0x10200040] _localeconv_r
Chain 0: 0x7fc8dc838700 [00000000/00001d80/0x10200040] _vfprintf_r
Chain 0: 0x7fc8dc8388c0 [00000000/00001d90/0x10200040] _vfprintf_r
Chain 0: 0x7fc8dc843f80 [00000000/0000238c/0x10200040] _vfprintf_r
Chain 0: 0x7fc8dc844280 [00000000/0000267c/0x10200040] _vfprintf_r
Chain 0: 0x7fc8dc844640 [00000000/00003278/0x10200040] _vfprintf_r
Chain 0: 0x7fc8dc844740 [00000000/000023bc/0x10200040] _vfprintf_r
Chain 0: 0x7fc8dc844880 [00000000/0000283c/0x10200040] _vfprintf_r
Chain 0: 0x7fc8dc844980 [00000000/00002130/0x10200040] _vfprintf_r
Chain 0: 0x7fc8dc844b40 [00000000/00002b50/0x10200040] _vfprintf_r
Chain 0: 0x7fc8dc83dd00 [00000000/0000218c/0x10200040] _vfprintf_r
Chain 0: 0x7fc8dc83f5c0 [00000000/00002bf8/0x10200040] _vfprintf_r
Chain 0: 0x7fc8dc83f740 [00000000/00002c00/0x10200040] _vfprintf_r
Chain 0: 0x7fc8dc83f8c0 [00000000/00008b44/0x10200040] __sprint_r
Chain 0: 0x7fc8dc822f80 [00000000/00006330/0x10200040] __sfvwrite_r
Chain 0: 0x7fc8dc82dd00 [00000000/00006424/0x10200040] __sfvwrite_r
Chain 0: 0x7fc8dc82e440 [00000000/00007280/0x10200040] memchr
Chain 0: 0x7fc8dc82f580 [00000000/00006694/0x10200040] __sfvwrite_r
Chain 0: 0x7fc8dc82ff00 [00000000/000074ac/0x10200040] memmove
Chain 0: 0x7fc8dc831580 [00000000/00006784/0x10200040] __sfvwrite_r
Chain 0: 0x7fc8dc82e440 [00000000/00007280/0x10200040] memchr
Chain 0: 0x7fc8dc82f580 [00000000/00006694/0x10200040] __sfvwrite_r
Chain 0: 0x7fc8dc82ff00 [00000000/000074ac/0x10200040] memmove
Chain 0: 0x7fc8dc831580 [00000000/00006784/0x10200040] __sfvwrite_r
Chain 0: 0x7fc8dc840b80 [00000000/00008b40/0x10200040] __sprint_r.part.0
Chain 0: 0x7fc8dc841180 [00000000/00002c08/0x10200040] _vfprintf_r
Chain 0: 0x7fc8dc841300 [00000000/000022f8/0x10200040] _vfprintf_r
Chain 0: 0x7fc8dc839880 [00000000/00001e54/0x10200040] _vfprintf_r
Chain 0: 0x7fc8dc842000 [00000000/000020d4/0x10200040] _vfprintf_r
Chain 0: 0x7fc8dc83f8c0 [00000000/00008b44/0x10200040] __sprint_r
Chain 0: 0x7fc8dc822f80 [00000000/00006330/0x10200040] __sfvwrite_r
Chain 0: 0x7fc8dc82dd00 [00000000/00006424/0x10200040] __sfvwrite_r
Chain 0: 0x7fc8dc82e440 [00000000/00007280/0x10200040] memchr
Chain 0: 0x7fc8dc82f580 [00000000/00006694/0x10200040] __sfvwrite_r
Chain 0: 0x7fc8dc82ff00 [00000000/000074ac/0x10200040] memmove
Chain 0: 0x7fc8dc831580 [00000000/00006784/0x10200040] __sfvwrite_r
Chain 0: 0x7fc8dc832940 [00000000/00005b7c/0x10200040] _fflush_r
Chain 0: 0x7fc8dc833b40 [00000000/000089f4/0x10200040] __swrite
Chain 0: 0x7fc8dc834140 [00000000/00009e70/0x10200040] _write_r
Chain 0: 0x7fc8dc834480 [00000000/0000b018/0x10200040] _write
Chain 0: 0x7fc8dc816380 [00000000/0000ad4c/0x10200040] findslot
Chain 0: 0x7fc8dc834740 [00000000/0000b02c/0x10200040] _write
Trace 0: 0x7fc8dc834b40 [00000000/0000b054/0x10200040] _write
Chain 0: 0x7fc8dc835340 [00000000/00009e98/0x10200040] _write_r
Chain 0: 0x7fc8dc835740 [00000000/00008a30/0x10200040] __swrite
Chain 0: 0x7fc8dc835a40 [00000000/00005ac8/0x10200040] __sflush_r
Chain 0: 0x7fc8dc836080 [00000000/00006764/0x10200040] __sfvwrite_r
Chain 0: 0x7fc8dc840b80 [00000000/00008b40/0x10200040] __sprint_r.part.0
Chain 0: 0x7fc8dc842280 [00000000/000020ec/0x10200040] _vfprintf_r
Chain 0: 0x7fc8dc842900 [00000000/00001c2c/0x10200040] printf
Chain 0: 0x7fc8dc847740 [00000000/000015b8/0x10200040] print_v1_info
Chain 0: 0x7fc8dc842f40 [00000000/000006f4/0x10200040] volatile_read32
Chain 0: 0x7fc8dc8478c0 [00000000/000015c8/0x10200040] print_v1_info
Chain 0: 0x7fc8dc837c40 [00000000/00001c00/0x10200040] printf
Chain 0: 0x7fc8dc838580 [00000000/00006914/0x10200040] _localeconv_r
Chain 0: 0x7fc8dc838700 [00000000/00001d80/0x10200040] _vfprintf_r
Chain 0: 0x7fc8dc8388c0 [00000000/00001d90/0x10200040] _vfprintf_r
Chain 0: 0x7fc8dc843f80 [00000000/0000238c/0x10200040] _vfprintf_r
Chain 0: 0x7fc8dc844280 [00000000/0000267c/0x10200040] _vfprintf_r
Chain 0: 0x7fc8dc844640 [00000000/00003278/0x10200040] _vfprintf_r
Chain 0: 0x7fc8dc844740 [00000000/000023bc/0x10200040] _vfprintf_r
Chain 0: 0x7fc8dc844880 [00000000/0000283c/0x10200040] _vfprintf_r
Chain 0: 0x7fc8dc844980 [00000000/00002130/0x10200040] _vfprintf_r
Chain 0: 0x7fc8dc844b40 [00000000/00002b50/0x10200040] _vfprintf_r
Chain 0: 0x7fc8dc83dd00 [00000000/0000218c/0x10200040] _vfprintf_r
Chain 0: 0x7fc8dc83f5c0 [00000000/00002bf8/0x10200040] _vfprintf_r
Chain 0: 0x7fc8dc83f740 [00000000/00002c00/0x10200040] _vfprintf_r
Chain 0: 0x7fc8dc83f8c0 [00000000/00008b44/0x10200040] __sprint_r
Chain 0: 0x7fc8dc822f80 [00000000/00006330/0x10200040] __sfvwrite_r
Chain 0: 0x7fc8dc82dd00 [00000000/00006424/0x10200040] __sfvwrite_r
Chain 0: 0x7fc8dc82e440 [00000000/00007280/0x10200040] memchr
Chain 0: 0x7fc8dc82f580 [00000000/00006694/0x10200040] __sfvwrite_r
Chain 0: 0x7fc8dc82ff00 [00000000/000074ac/0x10200040] memmove
Chain 0: 0x7fc8dc831580 [00000000/00006784/0x10200040] __sfvwrite_r
Chain 0: 0x7fc8dc82e440 [00000000/00007280/0x10200040] memchr
Chain 0: 0x7fc8dc82f580 [00000000/00006694/0x10200040] __sfvwrite_r
Chain 0: 0x7fc8dc82ff00 [00000000/000074ac/0x10200040] memmove
Chain 0: 0x7fc8dc831580 [00000000/00006784/0x10200040] __sfvwrite_r
Chain 0: 0x7fc8dc840b80 [00000000/00008b40/0x10200040] __sprint_r.part.0
Chain 0: 0x7fc8dc841180 [00000000/00002c08/0x10200040] _vfprintf_r
Chain 0: 0x7fc8dc841300 [00000000/000022f8/0x10200040] _vfprintf_r
Chain 0: 0x7fc8dc839880 [00000000/00001e54/0x10200040] _vfprintf_r
Chain 0: 0x7fc8dc842000 [00000000/000020d4/0x10200040] _vfprintf_r
Chain 0: 0x7fc8dc83f8c0 [00000000/00008b44/0x10200040] __sprint_r
Chain 0: 0x7fc8dc822f80 [00000000/00006330/0x10200040] __sfvwrite_r
Chain 0: 0x7fc8dc82dd00 [00000000/00006424/0x10200040] __sfvwrite_r
Chain 0: 0x7fc8dc82e440 [00000000/00007280/0x10200040] memchr
Chain 0: 0x7fc8dc82f580 [00000000/00006694/0x10200040] __sfvwrite_r
Chain 0: 0x7fc8dc82ff00 [00000000/000074ac/0x10200040] memmove
Chain 0: 0x7fc8dc831580 [00000000/00006784/0x10200040] __sfvwrite_r
Chain 0: 0x7fc8dc832940 [00000000/00005b7c/0x10200040] _fflush_r
Chain 0: 0x7fc8dc833b40 [00000000/000089f4/0x10200040] __swrite
Chain 0: 0x7fc8dc834140 [00000000/00009e70/0x10200040] _write_r
Chain 0: 0x7fc8dc834480 [00000000/0000b018/0x10200040] _write
Chain 0: 0x7fc8dc816380 [00000000/0000ad4c/0x10200040] findslot
Chain 0: 0x7fc8dc834740 [00000000/0000b02c/0x10200040] _write
Trace 0: 0x7fc8dc834b40 [00000000/0000b054/0x10200040] _write
Chain 0: 0x7fc8dc835340 [00000000/00009e98/0x10200040] _write_r
Chain 0: 0x7fc8dc835740 [00000000/00008a30/0x10200040] __swrite
Chain 0: 0x7fc8dc835a40 [00000000/00005ac8/0x10200040] __sflush_r
Chain 0: 0x7fc8dc836080 [00000000/00006764/0x10200040] __sfvwrite_r
Chain 0: 0x7fc8dc840b80 [00000000/00008b40/0x10200040] __sprint_r.part.0
Chain 0: 0x7fc8dc842280 [00000000/000020ec/0x10200040] _vfprintf_r
Chain 0: 0x7fc8dc842900 [00000000/00001c2c/0x10200040] printf
Chain 0: 0x7fc8dc847a40 [00000000/000015d8/0x10200040] print_v1_info
Chain 0: 0x7fc8dc842f40 [00000000/000006f4/0x10200040] volatile_read32
Chain 0: 0x7fc8dc847bc0 [00000000/000015e8/0x10200040] print_v1_info
Chain 0: 0x7fc8dc837c40 [00000000/00001c00/0x10200040] printf
Chain 0: 0x7fc8dc838580 [00000000/00006914/0x10200040] _localeconv_r
Chain 0: 0x7fc8dc838700 [00000000/00001d80/0x10200040] _vfprintf_r
Chain 0: 0x7fc8dc8388c0 [00000000/00001d90/0x10200040] _vfprintf_r
Chain 0: 0x7fc8dc843f80 [00000000/0000238c/0x10200040] _vfprintf_r
Chain 0: 0x7fc8dc844280 [00000000/0000267c/0x10200040] _vfprintf_r
Chain 0: 0x7fc8dc844640 [00000000/00003278/0x10200040] _vfprintf_r
Chain 0: 0x7fc8dc844740 [00000000/000023bc/0x10200040] _vfprintf_r
Chain 0: 0x7fc8dc844880 [00000000/0000283c/0x10200040] _vfprintf_r
Chain 0: 0x7fc8dc844980 [00000000/00002130/0x10200040] _vfprintf_r
Chain 0: 0x7fc8dc844b40 [00000000/00002b50/0x10200040] _vfprintf_r
Chain 0: 0x7fc8dc83dd00 [00000000/0000218c/0x10200040] _vfprintf_r
Chain 0: 0x7fc8dc83f5c0 [00000000/00002bf8/0x10200040] _vfprintf_r
Chain 0: 0x7fc8dc83f740 [00000000/00002c00/0x10200040] _vfprintf_r
Chain 0: 0x7fc8dc83f8c0 [00000000/00008b44/0x10200040] __sprint_r
Chain 0: 0x7fc8dc822f80 [00000000/00006330/0x10200040] __sfvwrite_r
Chain 0: 0x7fc8dc82dd00 [00000000/00006424/0x10200040] __sfvwrite_r
Chain 0: 0x7fc8dc82e440 [00000000/00007280/0x10200040] memchr
Chain 0: 0x7fc8dc82f580 [00000000/00006694/0x10200040] __sfvwrite_r
Chain 0: 0x7fc8dc82ff00 [00000000/000074ac/0x10200040] memmove
Chain 0: 0x7fc8dc831580 [00000000/00006784/0x10200040] __sfvwrite_r
Chain 0: 0x7fc8dc82e440 [00000000/00007280/0x10200040] memchr
Chain 0: 0x7fc8dc82f580 [00000000/00006694/0x10200040] __sfvwrite_r
Chain 0: 0x7fc8dc82ff00 [00000000/000074ac/0x10200040] memmove
Chain 0: 0x7fc8dc831580 [00000000/00006784/0x10200040] __sfvwrite_r
Chain 0: 0x7fc8dc840b80 [00000000/00008b40/0x10200040] __sprint_r.part.0
Chain 0: 0x7fc8dc841180 [00000000/00002c08/0x10200040] _vfprintf_r
Chain 0: 0x7fc8dc841300 [00000000/000022f8/0x10200040] _vfprintf_r
Chain 0: 0x7fc8dc839880 [00000000/00001e54/0x10200040] _vfprintf_r
Chain 0: 0x7fc8dc842000 [00000000/000020d4/0x10200040] _vfprintf_r
Chain 0: 0x7fc8dc83f8c0 [00000000/00008b44/0x10200040] __sprint_r
Chain 0: 0x7fc8dc822f80 [00000000/00006330/0x10200040] __sfvwrite_r
Chain 0: 0x7fc8dc82dd00 [00000000/00006424/0x10200040] __sfvwrite_r
Chain 0: 0x7fc8dc82e440 [00000000/00007280/0x10200040] memchr
Chain 0: 0x7fc8dc82f580 [00000000/00006694/0x10200040] __sfvwrite_r
Chain 0: 0x7fc8dc82ff00 [00000000/000074ac/0x10200040] memmove
Chain 0: 0x7fc8dc831580 [00000000/00006784/0x10200040] __sfvwrite_r
Chain 0: 0x7fc8dc832940 [00000000/00005b7c/0x10200040] _fflush_r
Chain 0: 0x7fc8dc833b40 [00000000/000089f4/0x10200040] __swrite
Chain 0: 0x7fc8dc834140 [00000000/00009e70/0x10200040] _write_r
Chain 0: 0x7fc8dc834480 [00000000/0000b018/0x10200040] _write
Chain 0: 0x7fc8dc816380 [00000000/0000ad4c/0x10200040] findslot
Chain 0: 0x7fc8dc834740 [00000000/0000b02c/0x10200040] _write
Trace 0: 0x7fc8dc834b40 [00000000/0000b054/0x10200040] _write
Chain 0: 0x7fc8dc835340 [00000000/00009e98/0x10200040] _write_r
Chain 0: 0x7fc8dc835740 [00000000/00008a30/0x10200040] __swrite
Chain 0: 0x7fc8dc835a40 [00000000/00005ac8/0x10200040] __sflush_r
Chain 0: 0x7fc8dc836080 [00000000/00006764/0x10200040] __sfvwrite_r
Chain 0: 0x7fc8dc840b80 [00000000/00008b40/0x10200040] __sprint_r.part.0
Chain 0: 0x7fc8dc842280 [00000000/000020ec/0x10200040] _vfprintf_r
Chain 0: 0x7fc8dc842900 [00000000/00001c2c/0x10200040] printf
Chain 0: 0x7fc8dc847d40 [00000000/000015f8/0x10200040] print_v1_info
Chain 0: 0x7fc8dc842f40 [00000000/000006f4/0x10200040] volatile_read32
Chain 0: 0x7fc8dc847ec0 [00000000/00001608/0x10200040] print_v1_info
Chain 0: 0x7fc8dc837c40 [00000000/00001c00/0x10200040] printf
Chain 0: 0x7fc8dc838580 [00000000/00006914/0x10200040] _localeconv_r
Chain 0: 0x7fc8dc838700 [00000000/00001d80/0x10200040] _vfprintf_r
Chain 0: 0x7fc8dc8388c0 [00000000/00001d90/0x10200040] _vfprintf_r
Chain 0: 0x7fc8dc843f80 [00000000/0000238c/0x10200040] _vfprintf_r
Chain 0: 0x7fc8dc844280 [00000000/0000267c/0x10200040] _vfprintf_r
Chain 0: 0x7fc8dc844640 [00000000/00003278/0x10200040] _vfprintf_r
Chain 0: 0x7fc8dc844740 [00000000/000023bc/0x10200040] _vfprintf_r
Chain 0: 0x7fc8dc844880 [00000000/0000283c/0x10200040] _vfprintf_r
Chain 0: 0x7fc8dc844980 [00000000/00002130/0x10200040] _vfprintf_r
Chain 0: 0x7fc8dc844b40 [00000000/00002b50/0x10200040] _vfprintf_r
Chain 0: 0x7fc8dc83dd00 [00000000/0000218c/0x10200040] _vfprintf_r
Chain 0: 0x7fc8dc83f5c0 [00000000/00002bf8/0x10200040] _vfprintf_r
Chain 0: 0x7fc8dc83f740 [00000000/00002c00/0x10200040] _vfprintf_r
Chain 0: 0x7fc8dc83f8c0 [00000000/00008b44/0x10200040] __sprint_r
Chain 0: 0x7fc8dc822f80 [00000000/00006330/0x10200040] __sfvwrite_r
Chain 0: 0x7fc8dc82dd00 [00000000/00006424/0x10200040] __sfvwrite_r
Chain 0: 0x7fc8dc82e440 [00000000/00007280/0x10200040] memchr
Chain 0: 0x7fc8dc82f580 [00000000/00006694/0x10200040] __sfvwrite_r
Chain 0: 0x7fc8dc82ff00 [00000000/000074ac/0x10200040] memmove
Chain 0: 0x7fc8dc831580 [00000000/00006784/0x10200040] __sfvwrite_r
Chain 0: 0x7fc8dc82e440 [00000000/00007280/0x10200040] memchr
Chain 0: 0x7fc8dc82f580 [00000000/00006694/0x10200040] __sfvwrite_r
Chain 0: 0x7fc8dc82ff00 [00000000/000074ac/0x10200040] memmove
Chain 0: 0x7fc8dc831580 [00000000/00006784/0x10200040] __sfvwrite_r
Chain 0: 0x7fc8dc840b80 [00000000/00008b40/0x10200040] __sprint_r.part.0
Chain 0: 0x7fc8dc841180 [00000000/00002c08/0x10200040] _vfprintf_r
Chain 0: 0x7fc8dc841300 [00000000/000022f8/0x10200040] _vfprintf_r
Chain 0: 0x7fc8dc839880 [00000000/00001e54/0x10200040] _vfprintf_r
Chain 0: 0x7fc8dc842000 [00000000/000020d4/0x10200040] _vfprintf_r
Chain 0: 0x7fc8dc83f8c0 [00000000/00008b44/0x10200040] __sprint_r
Chain 0: 0x7fc8dc822f80 [00000000/00006330/0x10200040] __sfvwrite_r
Chain 0: 0x7fc8dc82dd00 [00000000/00006424/0x10200040] __sfvwrite_r
Chain 0: 0x7fc8dc82e440 [00000000/00007280/0x10200040] memchr
Chain 0: 0x7fc8dc82f580 [00000000/00006694/0x10200040] __sfvwrite_r
Chain 0: 0x7fc8dc82ff00 [00000000/000074ac/0x10200040] memmove
Chain 0: 0x7fc8dc831580 [00000000/00006784/0x10200040] __sfvwrite_r
Chain 0: 0x7fc8dc832940 [00000000/00005b7c/0x10200040] _fflush_r
Chain 0: 0x7fc8dc833b40 [00000000/000089f4/0x10200040] __swrite
Chain 0: 0x7fc8dc834140 [00000000/00009e70/0x10200040] _write_r
Chain 0: 0x7fc8dc834480 [00000000/0000b018/0x10200040] _write
Chain 0: 0x7fc8dc816380 [00000000/0000ad4c/0x10200040] findslot
Chain 0: 0x7fc8dc834740 [00000000/0000b02c/0x10200040] _write
Trace 0: 0x7fc8dc834b40 [00000000/0000b054/0x10200040] _write
Chain 0: 0x7fc8dc835340 [00000000/00009e98/0x10200040] _write_r
Chain 0: 0x7fc8dc835740 [00000000/00008a30/0x10200040] __swrite
Chain 0: 0x7fc8dc835a40 [00000000/00005ac8/0x10200040] __sflush_r
Chain 0: 0x7fc8dc836080 [00000000/00006764/0x10200040] __sfvwrite_r
Chain 0: 0x7fc8dc840b80 [00000000/00008b40/0x10200040] __sprint_r.part.0
Chain 0: 0x7fc8dc842280 [00000000/000020ec/0x10200040] _vfprintf_r
Chain 0: 0x7fc8dc842900 [00000000/00001c2c/0x10200040] printf
Chain 0: 0x7fc8dc848040 [00000000/00001618/0x10200040] print_v1_info
Chain 0: 0x7fc8dc842f40 [00000000/000006f4/0x10200040] volatile_read32
Chain 0: 0x7fc8dc8481c0 [00000000/00001628/0x10200040] print_v1_info
Chain 0: 0x7fc8dc837c40 [00000000/00001c00/0x10200040] printf
Chain 0: 0x7fc8dc838580 [00000000/00006914/0x10200040] _localeconv_r
Chain 0: 0x7fc8dc838700 [00000000/00001d80/0x10200040] _vfprintf_r
Chain 0: 0x7fc8dc8388c0 [00000000/00001d90/0x10200040] _vfprintf_r
Chain 0: 0x7fc8dc843f80 [00000000/0000238c/0x10200040] _vfprintf_r
Chain 0: 0x7fc8dc844280 [00000000/0000267c/0x10200040] _vfprintf_r
Chain 0: 0x7fc8dc844640 [00000000/00003278/0x10200040] _vfprintf_r
Chain 0: 0x7fc8dc844740 [00000000/000023bc/0x10200040] _vfprintf_r
Chain 0: 0x7fc8dc844880 [00000000/0000283c/0x10200040] _vfprintf_r
Chain 0: 0x7fc8dc844980 [00000000/00002130/0x10200040] _vfprintf_r
Chain 0: 0x7fc8dc844b40 [00000000/00002b50/0x10200040] _vfprintf_r
Chain 0: 0x7fc8dc83dd00 [00000000/0000218c/0x10200040] _vfprintf_r
Chain 0: 0x7fc8dc83f5c0 [00000000/00002bf8/0x10200040] _vfprintf_r
Chain 0: 0x7fc8dc83f740 [00000000/00002c00/0x10200040] _vfprintf_r
Chain 0: 0x7fc8dc83f8c0 [00000000/00008b44/0x10200040] __sprint_r
Chain 0: 0x7fc8dc822f80 [00000000/00006330/0x10200040] __sfvwrite_r
Chain 0: 0x7fc8dc82dd00 [00000000/00006424/0x10200040] __sfvwrite_r
Chain 0: 0x7fc8dc82e440 [00000000/00007280/0x10200040] memchr
Chain 0: 0x7fc8dc82f580 [00000000/00006694/0x10200040] __sfvwrite_r
Chain 0: 0x7fc8dc82ff00 [00000000/000074ac/0x10200040] memmove
Chain 0: 0x7fc8dc831580 [00000000/00006784/0x10200040] __sfvwrite_r
Chain 0: 0x7fc8dc82e440 [00000000/00007280/0x10200040] memchr
Chain 0: 0x7fc8dc82f580 [00000000/00006694/0x10200040] __sfvwrite_r
Chain 0: 0x7fc8dc82ff00 [00000000/000074ac/0x10200040] memmove
Chain 0: 0x7fc8dc831580 [00000000/00006784/0x10200040] __sfvwrite_r
Chain 0: 0x7fc8dc840b80 [00000000/00008b40/0x10200040] __sprint_r.part.0
Chain 0: 0x7fc8dc841180 [00000000/00002c08/0x10200040] _vfprintf_r
Chain 0: 0x7fc8dc841300 [00000000/000022f8/0x10200040] _vfprintf_r
Chain 0: 0x7fc8dc839880 [00000000/00001e54/0x10200040] _vfprintf_r
Chain 0: 0x7fc8dc842000 [00000000/000020d4/0x10200040] _vfprintf_r
Chain 0: 0x7fc8dc83f8c0 [00000000/00008b44/0x10200040] __sprint_r
Chain 0: 0x7fc8dc822f80 [00000000/00006330/0x10200040] __sfvwrite_r
Chain 0: 0x7fc8dc82dd00 [00000000/00006424/0x10200040] __sfvwrite_r
Chain 0: 0x7fc8dc82e440 [00000000/00007280/0x10200040] memchr
Chain 0: 0x7fc8dc82f580 [00000000/00006694/0x10200040] __sfvwrite_r
Chain 0: 0x7fc8dc82ff00 [00000000/000074ac/0x10200040] memmove
Chain 0: 0x7fc8dc831580 [00000000/00006784/0x10200040] __sfvwrite_r
Chain 0: 0x7fc8dc832940 [00000000/00005b7c/0x10200040] _fflush_r
Chain 0: 0x7fc8dc833b40 [00000000/000089f4/0x10200040] __swrite
Chain 0: 0x7fc8dc834140 [00000000/00009e70/0x10200040] _write_r
Chain 0: 0x7fc8dc834480 [00000000/0000b018/0x10200040] _write
Chain 0: 0x7fc8dc816380 [00000000/0000ad4c/0x10200040] findslot
Chain 0: 0x7fc8dc834740 [00000000/0000b02c/0x10200040] _write
Trace 0: 0x7fc8dc834b40 [00000000/0000b054/0x10200040] _write
Chain 0: 0x7fc8dc835340 [00000000/00009e98/0x10200040] _write_r
Chain 0: 0x7fc8dc835740 [00000000/00008a30/0x10200040] __swrite
Chain 0: 0x7fc8dc835a40 [00000000/00005ac8/0x10200040] __sflush_r
Chain 0: 0x7fc8dc836080 [00000000/00006764/0x10200040] __sfvwrite_r
Chain 0: 0x7fc8dc840b80 [00000000/00008b40/0x10200040] __sprint_r.part.0
Chain 0: 0x7fc8dc842280 [00000000/000020ec/0x10200040] _vfprintf_r
Chain 0: 0x7fc8dc842900 [00000000/00001c2c/0x10200040] printf
Chain 0: 0x7fc8dc848340 [00000000/00001638/0x10200040] print_v1_info
Chain 0: 0x7fc8dc848540 [00000000/000016c8/0x10200040] virtio_init
Chain 0: 0x7fc8dc842f40 [00000000/000006f4/0x10200040] volatile_read32
Chain 0: 0x7fc8dc8487c0 [00000000/00001734/0x10200040] virtio_init
----------------
IN: virtio_init
0x00001740:  e3530003  cmp      r3, #3
0x00001744:  1a000013  bne      #0x1798

Linking TBs 0x7fc8dc8487c0 [00001734] index 1 -> 0x7fc8dc849080 [00001740]
Trace 0: 0x7fc8dc849080 [00000000/00001740/0x10200040] virtio_init
----------------
IN: virtio_init
0x00001748:  e59f307c  ldr      r3, [pc, #0x7c]
0x0000174c:  e2833a1b  add      r3, r3, #0x1b000
0x00001750:  e1a02003  mov      r2, r3
0x00001754:  e51b3008  ldr      r3, [fp, #-8]
0x00001758:  e582380c  str      r3, [r2, #0x80c]
0x0000175c:  e51b1010  ldr      r1, [fp, #-0x10]
0x00001760:  e59f0068  ldr      r0, [pc, #0x68]
0x00001764:  eb000125  bl       #0x1c00

Linking TBs 0x7fc8dc849080 [00001740] index 1 -> 0x7fc8dc849200 [00001748]
Trace 0: 0x7fc8dc849200 [00000000/00001748/0x10200040] virtio_init
Chain 0: 0x7fc8dc837c40 [00000000/00001c00/0x10200040] printf
Chain 0: 0x7fc8dc838580 [00000000/00006914/0x10200040] _localeconv_r
Chain 0: 0x7fc8dc838700 [00000000/00001d80/0x10200040] _vfprintf_r
Chain 0: 0x7fc8dc8388c0 [00000000/00001d90/0x10200040] _vfprintf_r
----------------
IN: _vfprintf_r
0x0000272c:  e38aa080  orr      sl, sl, #0x80
0x00002730:  e5db2000  ldrb     r2, [fp]
0x00002734:  eafffdeb  b        #0x1ee8

Trace 0: 0x7fc8dc8494c0 [00000000/0000272c/0x10200040] _vfprintf_r
----------------
IN: _vfprintf_r
0x00001ee8:  e28bb001  add      fp, fp, #1
0x00001eec:  e242c020  sub      ip, r2, #0x20
0x00001ef0:  e35c0058  cmp      ip, #0x58
0x00001ef4:  979ff10c  ldrls    pc, [pc, ip, lsl #2]

Trace 0: 0x7fc8dc849640 [00000000/00001ee8/0x10200040] _vfprintf_r
----------------
IN: _vfprintf_r
0x00002344:  e3a0e000  mov      lr, #0
0x00002348:  e242c030  sub      ip, r2, #0x30
0x0000234c:  e4db2001  ldrb     r2, [fp], #1
0x00002350:  e08ee10e  add      lr, lr, lr, lsl #2
0x00002354:  e08ce08e  add      lr, ip, lr, lsl #1
0x00002358:  e242c030  sub      ip, r2, #0x30
0x0000235c:  e35c0009  cmp      ip, #9
0x00002360:  9afffff9  bls      #0x234c

Trace 0: 0x7fc8dc849840 [00000000/00002344/0x10200040] _vfprintf_r
----------------
IN: _vfprintf_r
0x00002364:  e58de02c  str      lr, [sp, #0x2c]
0x00002368:  eafffedf  b        #0x1eec

Linking TBs 0x7fc8dc849840 [00002344] index 1 -> 0x7fc8dc849a40 [00002364]
Trace 0: 0x7fc8dc849a40 [00000000/00002364/0x10200040] _vfprintf_r
----------------
IN: _vfprintf_r
0x00001eec:  e242c020  sub      ip, r2, #0x20
0x00001ef0:  e35c0058  cmp      ip, #0x58
0x00001ef4:  979ff10c  ldrls    pc, [pc, ip, lsl #2]

Trace 0: 0x7fc8dc849bc0 [00000000/00001eec/0x10200040] _vfprintf_r
Chain 0: 0x7fc8dc843f80 [00000000/0000238c/0x10200040] _vfprintf_r
Chain 0: 0x7fc8dc844280 [00000000/0000267c/0x10200040] _vfprintf_r
Chain 0: 0x7fc8dc844640 [00000000/00003278/0x10200040] _vfprintf_r
Chain 0: 0x7fc8dc844740 [00000000/000023bc/0x10200040] _vfprintf_r
Chain 0: 0x7fc8dc844880 [00000000/0000283c/0x10200040] _vfprintf_r
Chain 0: 0x7fc8dc844980 [00000000/00002130/0x10200040] _vfprintf_r
Chain 0: 0x7fc8dc844b40 [00000000/00002b50/0x10200040] _vfprintf_r
Chain 0: 0x7fc8dc83dd00 [00000000/0000218c/0x10200040] _vfprintf_r
Linking TBs 0x7fc8dc83df80 [000021b8] index 0 -> 0x7fc8dc83e500 [000021f4]
Trace 0: 0x7fc8dc83e500 [00000000/000021f4/0x10200040] _vfprintf_r
----------------
IN: _vfprintf_r
0x0000298c:  e59d302c  ldr      r3, [sp, #0x2c]
0x00002990:  e59d201c  ldr      r2, [sp, #0x1c]
0x00002994:  e0436002  sub      r6, r3, r2
0x00002998:  e3560000  cmp      r6, #0
0x0000299c:  dafffe34  ble      #0x2274

Trace 0: 0x7fc8dc849dc0 [00000000/0000298c/0x10200040] _vfprintf_r
Chain 0: 0x7fc8dc83e9c0 [00000000/00002274/0x10200040] _vfprintf_r
Chain 0: 0x7fc8dc83f5c0 [00000000/00002bf8/0x10200040] _vfprintf_r
Chain 0: 0x7fc8dc83f740 [00000000/00002c00/0x10200040] _vfprintf_r
Chain 0: 0x7fc8dc83f8c0 [00000000/00008b44/0x10200040] __sprint_r
Chain 0: 0x7fc8dc822f80 [00000000/00006330/0x10200040] __sfvwrite_r
Chain 0: 0x7fc8dc82dd00 [00000000/00006424/0x10200040] __sfvwrite_r
Chain 0: 0x7fc8dc82e440 [00000000/00007280/0x10200040] memchr
Chain 0: 0x7fc8dc82f580 [00000000/00006694/0x10200040] __sfvwrite_r
Chain 0: 0x7fc8dc82ff00 [00000000/000074ac/0x10200040] memmove
Linking TBs 0x7fc8dc847280 [000075c8] index 0 -> 0x7fc8dc831300 [000075f0]
Trace 0: 0x7fc8dc831300 [00000000/000075f0/0x10200040] memmove
Chain 0: 0x7fc8dc831580 [00000000/00006784/0x10200040] __sfvwrite_r
Chain 0: 0x7fc8dc82e440 [00000000/00007280/0x10200040] memchr
Chain 0: 0x7fc8dc82f580 [00000000/00006694/0x10200040] __sfvwrite_r
Chain 0: 0x7fc8dc82ff00 [00000000/000074ac/0x10200040] memmove
Chain 0: 0x7fc8dc831580 [00000000/00006784/0x10200040] __sfvwrite_r
Chain 0: 0x7fc8dc840b80 [00000000/00008b40/0x10200040] __sprint_r.part.0
Chain 0: 0x7fc8dc841180 [00000000/00002c08/0x10200040] _vfprintf_r
Chain 0: 0x7fc8dc841300 [00000000/000022f8/0x10200040] _vfprintf_r
Chain 0: 0x7fc8dc839880 [00000000/00001e54/0x10200040] _vfprintf_r
Chain 0: 0x7fc8dc842000 [00000000/000020d4/0x10200040] _vfprintf_r
Chain 0: 0x7fc8dc83f8c0 [00000000/00008b44/0x10200040] __sprint_r
Chain 0: 0x7fc8dc822f80 [00000000/00006330/0x10200040] __sfvwrite_r
Chain 0: 0x7fc8dc82dd00 [00000000/00006424/0x10200040] __sfvwrite_r
Chain 0: 0x7fc8dc82e440 [00000000/00007280/0x10200040] memchr
Chain 0: 0x7fc8dc82f580 [00000000/00006694/0x10200040] __sfvwrite_r
Chain 0: 0x7fc8dc82ff00 [00000000/000074ac/0x10200040] memmove
Chain 0: 0x7fc8dc831580 [00000000/00006784/0x10200040] __sfvwrite_r
Chain 0: 0x7fc8dc832940 [00000000/00005b7c/0x10200040] _fflush_r
Chain 0: 0x7fc8dc833b40 [00000000/000089f4/0x10200040] __swrite
Chain 0: 0x7fc8dc834140 [00000000/00009e70/0x10200040] _write_r
Chain 0: 0x7fc8dc834480 [00000000/0000b018/0x10200040] _write
Chain 0: 0x7fc8dc816380 [00000000/0000ad4c/0x10200040] findslot
Chain 0: 0x7fc8dc834740 [00000000/0000b02c/0x10200040] _write
Trace 0: 0x7fc8dc834b40 [00000000/0000b054/0x10200040] _write
Chain 0: 0x7fc8dc835340 [00000000/00009e98/0x10200040] _write_r
Chain 0: 0x7fc8dc835740 [00000000/00008a30/0x10200040] __swrite
Chain 0: 0x7fc8dc835a40 [00000000/00005ac8/0x10200040] __sflush_r
Chain 0: 0x7fc8dc836080 [00000000/00006764/0x10200040] __sfvwrite_r
Chain 0: 0x7fc8dc840b80 [00000000/00008b40/0x10200040] __sprint_r.part.0
Chain 0: 0x7fc8dc842280 [00000000/000020ec/0x10200040] _vfprintf_r
Chain 0: 0x7fc8dc842900 [00000000/00001c2c/0x10200040] printf
----------------
IN: virtio_init
0x00001768:  e59f005c  ldr      r0, [pc, #0x5c]
0x0000176c:  ebfffafc  bl       #0x364

Trace 0: 0x7fc8dc849fc0 [00000000/00001768/0x10200040] virtio_init
----------------
IN: virtio_serial_init
0x00000364:  e92d4800  push     {fp, lr}
0x00000368:  e28db004  add      fp, sp, #4
0x0000036c:  e24dd018  sub      sp, sp, #0x18
0x00000370:  e50b0018  str      r0, [fp, #-0x18]
0x00000374:  e51b3018  ldr      r3, [fp, #-0x18]
0x00000378:  e2833a1b  add      r3, r3, #0x1b000
0x0000037c:  e593380c  ldr      r3, [r3, #0x80c]
0x00000380:  e1a00003  mov      r0, r3
0x00000384:  eb0000f0  bl       #0x74c

Trace 0: 0x7fc8dc84a140 [00000000/00000364/0x10200040] virtio_serial_init
----------------
IN: virtio_mmio_init
0x0000074c:  e92d4800  push     {fp, lr}
0x00000750:  e28db004  add      fp, sp, #4
0x00000754:  e24dd010  sub      sp, sp, #0x10
0x00000758:  e50b0010  str      r0, [fp, #-0x10]
0x0000075c:  e51b3010  ldr      r3, [fp, #-0x10]
0x00000760:  e2833004  add      r3, r3, #4
0x00000764:  e1a00003  mov      r0, r3
0x00000768:  ebffffe1  bl       #0x6f4

Trace 0: 0x7fc8dc84a440 [00000000/0000074c/0x10200040] virtio_mmio_init
Linking TBs 0x7fc8dc84a440 [0000074c] index 0 -> 0x7fc8dc842f40 [000006f4]
Trace 0: 0x7fc8dc842f40 [00000000/000006f4/0x10200040] volatile_read32
----------------
IN: virtio_mmio_init
0x0000076c:  e50b0008  str      r0, [fp, #-8]
0x00000770:  e51b3010  ldr      r3, [fp, #-0x10]
0x00000774:  e1a00003  mov      r0, r3
0x00000778:  ebffffdd  bl       #0x6f4

Trace 0: 0x7fc8dc84a6c0 [00000000/0000076c/0x10200040] virtio_mmio_init
Linking TBs 0x7fc8dc84a6c0 [0000076c] index 0 -> 0x7fc8dc842f40 [000006f4]
Trace 0: 0x7fc8dc842f40 [00000000/000006f4/0x10200040] volatile_read32
----------------
IN: virtio_mmio_init
0x0000077c:  e1a03000  mov      r3, r0
0x00000780:  e59f208c  ldr      r2, [pc, #0x8c]
0x00000784:  e1530002  cmp      r3, r2
0x00000788:  0a000008  beq      #0x7b0

Trace 0: 0x7fc8dc84a880 [00000000/0000077c/0x10200040] virtio_mmio_init
----------------
IN: virtio_mmio_init
0x000007b0:  e3a03000  mov      r3, #0
0x000007b4:  e50b300c  str      r3, [fp, #-0xc]
0x000007b8:  e51b3010  ldr      r3, [fp, #-0x10]
0x000007bc:  e2833070  add      r3, r3, #0x70
0x000007c0:  e51b100c  ldr      r1, [fp, #-0xc]
0x000007c4:  e1a00003  mov      r0, r3
0x000007c8:  ebffffd3  bl       #0x71c

Linking TBs 0x7fc8dc84a880 [0000077c] index 0 -> 0x7fc8dc84aa40 [000007b0]
Trace 0: 0x7fc8dc84aa40 [00000000/000007b0/0x10200040] virtio_mmio_init
----------------
IN: volatile_write32
0x0000071c:  e92d0810  push     {r4, fp}
0x00000720:  e28db004  add      fp, sp, #4
0x00000724:  e24dd008  sub      sp, sp, #8
0x00000728:  e50b0008  str      r0, [fp, #-8]
0x0000072c:  e1a03001  mov      r3, r1
0x00000730:  e1a04003  mov      r4, r3
0x00000734:  e24b3008  sub      r3, fp, #8
0x00000738:  e5834000  str      r4, [r3]
0x0000073c:  e1a00000  mov      r0, r0
0x00000740:  e24bd004  sub      sp, fp, #4
0x00000744:  e8bd0810  pop      {r4, fp}
0x00000748:  e12fff1e  bx       lr

Linking TBs 0x7fc8dc84aa40 [000007b0] index 0 -> 0x7fc8dc84ac80 [0000071c]
Trace 0: 0x7fc8dc84ac80 [00000000/0000071c/0x10200040] volatile_write32
----------------
IN: virtio_mmio_init
0x000007cc:  e51b300c  ldr      r3, [fp, #-0xc]
0x000007d0:  e3833003  orr      r3, r3, #3
0x000007d4:  e50b300c  str      r3, [fp, #-0xc]
0x000007d8:  e51b3010  ldr      r3, [fp, #-0x10]
0x000007dc:  e2833070  add      r3, r3, #0x70
0x000007e0:  e51b100c  ldr      r1, [fp, #-0xc]
0x000007e4:  e1a00003  mov      r0, r3
0x000007e8:  ebffffcb  bl       #0x71c

Trace 0: 0x7fc8dc84b000 [00000000/000007cc/0x10200040] virtio_mmio_init
Linking TBs 0x7fc8dc84b000 [000007cc] index 0 -> 0x7fc8dc84ac80 [0000071c]
Trace 0: 0x7fc8dc84ac80 [00000000/0000071c/0x10200040] volatile_write32
----------------
IN: virtio_mmio_init
0x000007ec:  e51b3010  ldr      r3, [fp, #-0x10]
0x000007f0:  e2833028  add      r3, r3, #0x28
0x000007f4:  e3a01a01  mov      r1, #0x1000
0x000007f8:  e1a00003  mov      r0, r3
0x000007fc:  ebffffc6  bl       #0x71c

Trace 0: 0x7fc8dc84b280 [00000000/000007ec/0x10200040] virtio_mmio_init
Linking TBs 0x7fc8dc84b280 [000007ec] index 0 -> 0x7fc8dc84ac80 [0000071c]
Trace 0: 0x7fc8dc84ac80 [00000000/0000071c/0x10200040] volatile_write32
----------------
IN: virtio_mmio_init
0x00000800:  e3a03000  mov      r3, #0
0x00000804:  e1a00003  mov      r0, r3
0x00000808:  e24bd004  sub      sp, fp, #4
0x0000080c:  e8bd4800  pop      {fp, lr}
0x00000810:  e12fff1e  bx       lr

Trace 0: 0x7fc8dc84b400 [00000000/00000800/0x10200040] virtio_mmio_init
----------------
IN: virtio_serial_init
0x00000388:  e1a03000  mov      r3, r0
0x0000038c:  e3530000  cmp      r3, #0
0x00000390:  0a000003  beq      #0x3a4

Trace 0: 0x7fc8dc84b600 [00000000/00000388/0x10200040] virtio_serial_init
----------------
IN: virtio_serial_init
0x000003a4:  e59f0278  ldr      r0, [pc, #0x278]
0x000003a8:  eb00064f  bl       #0x1cec

Linking TBs 0x7fc8dc84b600 [00000388] index 0 -> 0x7fc8dc84b780 [000003a4]
Trace 0: 0x7fc8dc84b780 [00000000/000003a4/0x10200040] virtio_serial_init
Chain 0: 0x7fc8dc822380 [00000000/00001cec/0x10200040] puts
Chain 0: 0x7fc8dc822780 [00000000/00001c58/0x10200040] _puts_r
Chain 0: 0x7fc8dc822f80 [00000000/00006330/0x10200040] __sfvwrite_r
Chain 0: 0x7fc8dc82dd00 [00000000/00006424/0x10200040] __sfvwrite_r
Chain 0: 0x7fc8dc82e440 [00000000/00007280/0x10200040] memchr
Chain 0: 0x7fc8dc82f580 [00000000/00006694/0x10200040] __sfvwrite_r
Chain 0: 0x7fc8dc82ff00 [00000000/000074ac/0x10200040] memmove
Chain 0: 0x7fc8dc831580 [00000000/00006784/0x10200040] __sfvwrite_r
Chain 0: 0x7fc8dc82e440 [00000000/00007280/0x10200040] memchr
Chain 0: 0x7fc8dc82f580 [00000000/00006694/0x10200040] __sfvwrite_r
Chain 0: 0x7fc8dc82ff00 [00000000/000074ac/0x10200040] memmove
Chain 0: 0x7fc8dc831580 [00000000/00006784/0x10200040] __sfvwrite_r
Chain 0: 0x7fc8dc832940 [00000000/00005b7c/0x10200040] _fflush_r
Chain 0: 0x7fc8dc833b40 [00000000/000089f4/0x10200040] __swrite
Chain 0: 0x7fc8dc834140 [00000000/00009e70/0x10200040] _write_r
Chain 0: 0x7fc8dc834480 [00000000/0000b018/0x10200040] _write
Chain 0: 0x7fc8dc816380 [00000000/0000ad4c/0x10200040] findslot
Chain 0: 0x7fc8dc834740 [00000000/0000b02c/0x10200040] _write
Trace 0: 0x7fc8dc834b40 [00000000/0000b054/0x10200040] _write
Chain 0: 0x7fc8dc835340 [00000000/00009e98/0x10200040] _write_r
Chain 0: 0x7fc8dc835740 [00000000/00008a30/0x10200040] __swrite
Chain 0: 0x7fc8dc835a40 [00000000/00005ac8/0x10200040] __sflush_r
Chain 0: 0x7fc8dc836080 [00000000/00006764/0x10200040] __sfvwrite_r
Chain 0: 0x7fc8dc836600 [00000000/00001cc4/0x10200040] _puts_r
----------------
IN: virtio_serial_init
0x000003ac:  e51b3018  ldr      r3, [fp, #-0x18]
0x000003b0:  e2833b6e  add      r3, r3, #0x1b800
0x000003b4:  e283300c  add      r3, r3, #0xc
0x000003b8:  e1a00003  mov      r0, r3
0x000003bc:  eb000116  bl       #0x81c

Trace 0: 0x7fc8dc84b900 [00000000/000003ac/0x10200040] virtio_serial_init
----------------
IN: virtio_mmio_get_features
0x0000081c:  e92d4800  push     {fp, lr}
0x00000820:  e28db004  add      fp, sp, #4
0x00000824:  e24dd008  sub      sp, sp, #8
0x00000828:  e50b0008  str      r0, [fp, #-8]
0x0000082c:  e51b3008  ldr      r3, [fp, #-8]
0x00000830:  e2833010  add      r3, r3, #0x10
0x00000834:  e1a00003  mov      r0, r3
0x00000838:  ebffffad  bl       #0x6f4

Trace 0: 0x7fc8dc84ba80 [00000000/0000081c/0x10200040] virtio_mmio_get_features
Chain 0: 0x7fc8dc842f40 [00000000/000006f4/0x10200040] volatile_read32
----------------
IN: virtio_mmio_get_features
0x0000083c:  e1a03000  mov      r3, r0
0x00000840:  e1a00003  mov      r0, r3
0x00000844:  e24bd004  sub      sp, fp, #4
0x00000848:  e8bd4800  pop      {fp, lr}
0x0000084c:  e12fff1e  bx       lr

Trace 0: 0x7fc8dc84bd00 [00000000/0000083c/0x10200040] virtio_mmio_get_features
----------------
IN: virtio_serial_init
0x000003c0:  e50b0008  str      r0, [fp, #-8]
0x000003c4:  e51b1008  ldr      r1, [fp, #-8]
0x000003c8:  e59f0258  ldr      r0, [pc, #0x258]
0x000003cc:  eb00060b  bl       #0x1c00

Trace 0: 0x7fc8dc84bf00 [00000000/000003c0/0x10200040] virtio_serial_init
Chain 0: 0x7fc8dc837c40 [00000000/00001c00/0x10200040] printf
Chain 0: 0x7fc8dc838580 [00000000/00006914/0x10200040] _localeconv_r
Chain 0: 0x7fc8dc838700 [00000000/00001d80/0x10200040] _vfprintf_r
Chain 0: 0x7fc8dc8388c0 [00000000/00001d90/0x10200040] _vfprintf_r
Chain 0: 0x7fc8dc8494c0 [00000000/0000272c/0x10200040] _vfprintf_r
Chain 0: 0x7fc8dc849640 [00000000/00001ee8/0x10200040] _vfprintf_r
Chain 0: 0x7fc8dc849840 [00000000/00002344/0x10200040] _vfprintf_r
Chain 0: 0x7fc8dc849bc0 [00000000/00001eec/0x10200040] _vfprintf_r
Chain 0: 0x7fc8dc843f80 [00000000/0000238c/0x10200040] _vfprintf_r
Chain 0: 0x7fc8dc844280 [00000000/0000267c/0x10200040] _vfprintf_r
Chain 0: 0x7fc8dc844640 [00000000/00003278/0x10200040] _vfprintf_r
Chain 0: 0x7fc8dc844740 [00000000/000023bc/0x10200040] _vfprintf_r
Chain 0: 0x7fc8dc844880 [00000000/0000283c/0x10200040] _vfprintf_r
Chain 0: 0x7fc8dc844980 [00000000/00002130/0x10200040] _vfprintf_r
Chain 0: 0x7fc8dc844b40 [00000000/00002b50/0x10200040] _vfprintf_r
Chain 0: 0x7fc8dc83dd00 [00000000/0000218c/0x10200040] _vfprintf_r
Chain 0: 0x7fc8dc849dc0 [00000000/0000298c/0x10200040] _vfprintf_r
----------------
IN: _vfprintf_r
0x000029a0:  e3560010  cmp      r6, #0x10
0x000029a4:  e59d3090  ldr      r3, [sp, #0x90]
0x000029a8:  da000022  ble      #0x2a38

Linking TBs 0x7fc8dc849dc0 [0000298c] index 1 -> 0x7fc8dc84c100 [000029a0]
Trace 0: 0x7fc8dc84c100 [00000000/000029a0/0x10200040] _vfprintf_r
----------------
IN: _vfprintf_r
0x00002a38:  e2833001  add      r3, r3, #1
0x00002a3c:  e3530007  cmp      r3, #7
0x00002a40:  e0844006  add      r4, r4, r6
0x00002a44:  e5889000  str      sb, [r8]
0x00002a48:  e5886004  str      r6, [r8, #4]
0x00002a4c:  e58d3090  str      r3, [sp, #0x90]
0x00002a50:  e58d4094  str      r4, [sp, #0x94]
0x00002a54:  d2888008  addle    r8, r8, #8
0x00002a58:  dafffe05  ble      #0x2274

Linking TBs 0x7fc8dc84c100 [000029a0] index 0 -> 0x7fc8dc84c300 [00002a38]
Trace 0: 0x7fc8dc84c300 [00000000/00002a38/0x10200040] _vfprintf_r
Chain 0: 0x7fc8dc83e9c0 [00000000/00002274/0x10200040] _vfprintf_r
Chain 0: 0x7fc8dc83f5c0 [00000000/00002bf8/0x10200040] _vfprintf_r
Chain 0: 0x7fc8dc83f740 [00000000/00002c00/0x10200040] _vfprintf_r
Chain 0: 0x7fc8dc83f8c0 [00000000/00008b44/0x10200040] __sprint_r
Chain 0: 0x7fc8dc822f80 [00000000/00006330/0x10200040] __sfvwrite_r
Chain 0: 0x7fc8dc82dd00 [00000000/00006424/0x10200040] __sfvwrite_r
Chain 0: 0x7fc8dc82e440 [00000000/00007280/0x10200040] memchr
Chain 0: 0x7fc8dc82f580 [00000000/00006694/0x10200040] __sfvwrite_r
Chain 0: 0x7fc8dc82ff00 [00000000/000074ac/0x10200040] memmove
Chain 0: 0x7fc8dc831580 [00000000/00006784/0x10200040] __sfvwrite_r
Chain 0: 0x7fc8dc82e440 [00000000/00007280/0x10200040] memchr
Chain 0: 0x7fc8dc82f580 [00000000/00006694/0x10200040] __sfvwrite_r
Chain 0: 0x7fc8dc82ff00 [00000000/000074ac/0x10200040] memmove
Chain 0: 0x7fc8dc831580 [00000000/00006784/0x10200040] __sfvwrite_r
Chain 0: 0x7fc8dc82e440 [00000000/00007280/0x10200040] memchr
Chain 0: 0x7fc8dc82f580 [00000000/00006694/0x10200040] __sfvwrite_r
Chain 0: 0x7fc8dc82ff00 [00000000/000074ac/0x10200040] memmove
Chain 0: 0x7fc8dc831580 [00000000/00006784/0x10200040] __sfvwrite_r
Chain 0: 0x7fc8dc840b80 [00000000/00008b40/0x10200040] __sprint_r.part.0
Chain 0: 0x7fc8dc841180 [00000000/00002c08/0x10200040] _vfprintf_r
Chain 0: 0x7fc8dc841300 [00000000/000022f8/0x10200040] _vfprintf_r
Chain 0: 0x7fc8dc839880 [00000000/00001e54/0x10200040] _vfprintf_r
Chain 0: 0x7fc8dc842000 [00000000/000020d4/0x10200040] _vfprintf_r
Chain 0: 0x7fc8dc83f8c0 [00000000/00008b44/0x10200040] __sprint_r
Chain 0: 0x7fc8dc822f80 [00000000/00006330/0x10200040] __sfvwrite_r
Chain 0: 0x7fc8dc82dd00 [00000000/00006424/0x10200040] __sfvwrite_r
Chain 0: 0x7fc8dc82e440 [00000000/00007280/0x10200040] memchr
Chain 0: 0x7fc8dc82f580 [00000000/00006694/0x10200040] __sfvwrite_r
Chain 0: 0x7fc8dc82ff00 [00000000/000074ac/0x10200040] memmove
Chain 0: 0x7fc8dc831580 [00000000/00006784/0x10200040] __sfvwrite_r
Chain 0: 0x7fc8dc832940 [00000000/00005b7c/0x10200040] _fflush_r
Chain 0: 0x7fc8dc833b40 [00000000/000089f4/0x10200040] __swrite
Chain 0: 0x7fc8dc834140 [00000000/00009e70/0x10200040] _write_r
Chain 0: 0x7fc8dc834480 [00000000/0000b018/0x10200040] _write
Chain 0: 0x7fc8dc816380 [00000000/0000ad4c/0x10200040] findslot
Chain 0: 0x7fc8dc834740 [00000000/0000b02c/0x10200040] _write
Trace 0: 0x7fc8dc834b40 [00000000/0000b054/0x10200040] _write
Chain 0: 0x7fc8dc835340 [00000000/00009e98/0x10200040] _write_r
Chain 0: 0x7fc8dc835740 [00000000/00008a30/0x10200040] __swrite
Chain 0: 0x7fc8dc835a40 [00000000/00005ac8/0x10200040] __sflush_r
Chain 0: 0x7fc8dc836080 [00000000/00006764/0x10200040] __sfvwrite_r
Chain 0: 0x7fc8dc840b80 [00000000/00008b40/0x10200040] __sprint_r.part.0
Chain 0: 0x7fc8dc842280 [00000000/000020ec/0x10200040] _vfprintf_r
Chain 0: 0x7fc8dc842900 [00000000/00001c2c/0x10200040] printf
----------------
IN: virtio_serial_init
0x000003d0:  e51b3008  ldr      r3, [fp, #-8]
0x000003d4:  e2033002  and      r3, r3, #2
0x000003d8:  e3530000  cmp      r3, #0
0x000003dc:  0a00000c  beq      #0x414

Trace 0: 0x7fc8dc84c640 [00000000/000003d0/0x10200040] virtio_serial_init
----------------
IN: virtio_serial_init
0x00000414:  e59f0214  ldr      r0, [pc, #0x214]
0x00000418:  eb000633  bl       #0x1cec

Trace 0: 0x7fc8dc84c800 [00000000/00000414/0x10200040] virtio_serial_init
Chain 0: 0x7fc8dc822380 [00000000/00001cec/0x10200040] puts
Chain 0: 0x7fc8dc822780 [00000000/00001c58/0x10200040] _puts_r
Chain 0: 0x7fc8dc822f80 [00000000/00006330/0x10200040] __sfvwrite_r
Chain 0: 0x7fc8dc82dd00 [00000000/00006424/0x10200040] __sfvwrite_r
Chain 0: 0x7fc8dc82e440 [00000000/00007280/0x10200040] memchr
Chain 0: 0x7fc8dc82f580 [00000000/00006694/0x10200040] __sfvwrite_r
Chain 0: 0x7fc8dc82ff00 [00000000/000074ac/0x10200040] memmove
Chain 0: 0x7fc8dc831580 [00000000/00006784/0x10200040] __sfvwrite_r
Chain 0: 0x7fc8dc82e440 [00000000/00007280/0x10200040] memchr
Chain 0: 0x7fc8dc82f580 [00000000/00006694/0x10200040] __sfvwrite_r
Chain 0: 0x7fc8dc82ff00 [00000000/000074ac/0x10200040] memmove
Chain 0: 0x7fc8dc831580 [00000000/00006784/0x10200040] __sfvwrite_r
Chain 0: 0x7fc8dc832940 [00000000/00005b7c/0x10200040] _fflush_r
Chain 0: 0x7fc8dc833b40 [00000000/000089f4/0x10200040] __swrite
Chain 0: 0x7fc8dc834140 [00000000/00009e70/0x10200040] _write_r
Chain 0: 0x7fc8dc834480 [00000000/0000b018/0x10200040] _write
Chain 0: 0x7fc8dc816380 [00000000/0000ad4c/0x10200040] findslot
Chain 0: 0x7fc8dc834740 [00000000/0000b02c/0x10200040] _write
Trace 0: 0x7fc8dc834b40 [00000000/0000b054/0x10200040] _write
Chain 0: 0x7fc8dc835340 [00000000/00009e98/0x10200040] _write_r
Chain 0: 0x7fc8dc835740 [00000000/00008a30/0x10200040] __swrite
Chain 0: 0x7fc8dc835a40 [00000000/00005ac8/0x10200040] __sflush_r
Chain 0: 0x7fc8dc836080 [00000000/00006764/0x10200040] __sfvwrite_r
Chain 0: 0x7fc8dc836600 [00000000/00001cc4/0x10200040] _puts_r
----------------
IN: virtio_serial_init
0x0000041c:  e51b3018  ldr      r3, [fp, #-0x18]
0x00000420:  e2833a1b  add      r3, r3, #0x1b000
0x00000424:  e593380c  ldr      r3, [r3, #0x80c]
0x00000428:  e2833c01  add      r3, r3, #0x100
0x0000042c:  e51b2018  ldr      r2, [fp, #-0x18]
0x00000430:  e2822a1b  add      r2, r2, #0x1b000
0x00000434:  e5823810  str      r3, [r2, #0x810]
0x00000438:  e51b3018  ldr      r3, [fp, #-0x18]
0x0000043c:  e2833a1b  add      r3, r3, #0x1b000
0x00000440:  e5933810  ldr      r3, [r3, #0x810]
0x00000444:  e3a02000  mov      r2, #0
0x00000448:  e1c320b0  strh     r2, [r3]
0x0000044c:  e51b3018  ldr      r3, [fp, #-0x18]
0x00000450:  e2833a1b  add      r3, r3, #0x1b000
0x00000454:  e5933810  ldr      r3, [r3, #0x810]
0x00000458:  e3a02000  mov      r2, #0
0x0000045c:  e1c320b2  strh     r2, [r3, #2]
0x00000460:  e51b3018  ldr      r3, [fp, #-0x18]
0x00000464:  e2833a1b  add      r3, r3, #0x1b000
0x00000468:  e5933810  ldr      r3, [r3, #0x810]
0x0000046c:  e3a02001  mov      r2, #1
0x00000470:  e5832004  str      r2, [r3, #4]
0x00000474:  e51b3018  ldr      r3, [fp, #-0x18]
0x00000478:  e2833a1b  add      r3, r3, #0x1b000
0x0000047c:  e5933810  ldr      r3, [r3, #0x810]
0x00000480:  e3a02001  mov      r2, #1
0x00000484:  e5832008  str      r2, [r3, #8]
0x00000488:  e59f01a4  ldr      r0, [pc, #0x1a4]
0x0000048c:  eb000616  bl       #0x1cec

Trace 0: 0x7fc8dc84c980 [00000000/0000041c/0x10200040] virtio_serial_init
Chain 0: 0x7fc8dc822380 [00000000/00001cec/0x10200040] puts
Chain 0: 0x7fc8dc822780 [00000000/00001c58/0x10200040] _puts_r
Chain 0: 0x7fc8dc822f80 [00000000/00006330/0x10200040] __sfvwrite_r
Chain 0: 0x7fc8dc82dd00 [00000000/00006424/0x10200040] __sfvwrite_r
Chain 0: 0x7fc8dc82e440 [00000000/00007280/0x10200040] memchr
Chain 0: 0x7fc8dc82f580 [00000000/00006694/0x10200040] __sfvwrite_r
Chain 0: 0x7fc8dc82ff00 [00000000/000074ac/0x10200040] memmove
Chain 0: 0x7fc8dc831580 [00000000/00006784/0x10200040] __sfvwrite_r
Chain 0: 0x7fc8dc82e440 [00000000/00007280/0x10200040] memchr
Chain 0: 0x7fc8dc82f580 [00000000/00006694/0x10200040] __sfvwrite_r
Chain 0: 0x7fc8dc82ff00 [00000000/000074ac/0x10200040] memmove
Chain 0: 0x7fc8dc831580 [00000000/00006784/0x10200040] __sfvwrite_r
Chain 0: 0x7fc8dc832940 [00000000/00005b7c/0x10200040] _fflush_r
Chain 0: 0x7fc8dc833b40 [00000000/000089f4/0x10200040] __swrite
Chain 0: 0x7fc8dc834140 [00000000/00009e70/0x10200040] _write_r
Chain 0: 0x7fc8dc834480 [00000000/0000b018/0x10200040] _write
Chain 0: 0x7fc8dc816380 [00000000/0000ad4c/0x10200040] findslot
Chain 0: 0x7fc8dc834740 [00000000/0000b02c/0x10200040] _write
Trace 0: 0x7fc8dc834b40 [00000000/0000b054/0x10200040] _write
Chain 0: 0x7fc8dc835340 [00000000/00009e98/0x10200040] _write_r
Chain 0: 0x7fc8dc835740 [00000000/00008a30/0x10200040] __swrite
Chain 0: 0x7fc8dc835a40 [00000000/00005ac8/0x10200040] __sflush_r
Chain 0: 0x7fc8dc836080 [00000000/00006764/0x10200040] __sfvwrite_r
Chain 0: 0x7fc8dc836600 [00000000/00001cc4/0x10200040] _puts_r
----------------
IN: virtio_serial_init
0x00000490:  e51b0018  ldr      r0, [fp, #-0x18]
0x00000494:  e51b3018  ldr      r3, [fp, #-0x18]
0x00000498:  e2833b6e  add      r3, r3, #0x1b800
0x0000049c:  e2833020  add      r3, r3, #0x20
0x000004a0:  e1a02003  mov      r2, r3
0x000004a4:  e3a01b01  mov      r1, #0x400
0x000004a8:  ebffff8a  bl       #0x2d8

Trace 0: 0x7fc8dc84d0c0 [00000000/00000490/0x10200040] virtio_serial_init
----------------
IN: virtio_init_queue
0x000002d8:  e52db004  str      fp, [sp, #-4]!
0x000002dc:  e28db000  add      fp, sp, #0
0x000002e0:  e24dd014  sub      sp, sp, #0x14
0x000002e4:  e50b0008  str      r0, [fp, #-8]
0x000002e8:  e50b100c  str      r1, [fp, #-0xc]
0x000002ec:  e50b2010  str      r2, [fp, #-0x10]
0x000002f0:  e51b3010  ldr      r3, [fp, #-0x10]
0x000002f4:  e51b200c  ldr      r2, [fp, #-0xc]
0x000002f8:  e5832000  str      r2, [r3]
0x000002fc:  e51b3010  ldr      r3, [fp, #-0x10]
0x00000300:  e51b2008  ldr      r2, [fp, #-8]
0x00000304:  e5832010  str      r2, [r3, #0x10]
0x00000308:  e51b300c  ldr      r3, [fp, #-0xc]
0x0000030c:  e1a03203  lsl      r3, r3, #4
0x00000310:  e51b2008  ldr      r2, [fp, #-8]
0x00000314:  e0822003  add      r2, r2, r3
0x00000318:  e51b3010  ldr      r3, [fp, #-0x10]
0x0000031c:  e5832014  str      r2, [r3, #0x14]
0x00000320:  e51b200c  ldr      r2, [fp, #-0xc]
0x00000324:  e1a03002  mov      r3, r2
0x00000328:  e1a03183  lsl      r3, r3, #3
0x0000032c:  e0833002  add      r3, r3, r2
0x00000330:  e1a03083  lsl      r3, r3, #1
0x00000334:  e2833a01  add      r3, r3, #0x1000
0x00000338:  e2833003  add      r3, r3, #3
0x0000033c:  e3c33eff  bic      r3, r3, #0xff0
0x00000340:  e3c3300f  bic      r3, r3, #0xf
0x00000344:  e51b2008  ldr      r2, [fp, #-8]
0x00000348:  e0822003  add      r2, r2, r3
0x0000034c:  e51b3010  ldr      r3, [fp, #-0x10]
0x00000350:  e5832018  str      r2, [r3, #0x18]
0x00000354:  e1a00000  mov      r0, r0
0x00000358:  e28bd000  add      sp, fp, #0
0x0000035c:  e49db004  pop      {fp}
0x00000360:  e12fff1e  bx       lr

Trace 0: 0x7fc8dc84d2c0 [00000000/000002d8/0x10200040] virtio_init_queue
----------------
IN: virtio_serial_init
0x000004ac:  e51b3018  ldr      r3, [fp, #-0x18]
0x000004b0:  e2830a07  add      r0, r3, #0x7000
0x000004b4:  e51b3018  ldr      r3, [fp, #-0x18]
0x000004b8:  e2833b6e  add      r3, r3, #0x1b800
0x000004bc:  e2833040  add      r3, r3, #0x40
0x000004c0:  e1a02003  mov      r2, r3
0x000004c4:  e3a01b01  mov      r1, #0x400
0x000004c8:  ebffff82  bl       #0x2d8

Trace 0: 0x7fc8dc84da40 [00000000/000004ac/0x10200040] virtio_serial_init
Chain 0: 0x7fc8dc84d2c0 [00000000/000002d8/0x10200040] virtio_init_queue
----------------
IN: virtio_serial_init
0x000004cc:  e51b3018  ldr      r3, [fp, #-0x18]
0x000004d0:  e2830a0e  add      r0, r3, #0xe000
0x000004d4:  e51b3018  ldr      r3, [fp, #-0x18]
0x000004d8:  e2833b6e  add      r3, r3, #0x1b800
0x000004dc:  e2833060  add      r3, r3, #0x60
0x000004e0:  e1a02003  mov      r2, r3
0x000004e4:  e3a01b01  mov      r1, #0x400
0x000004e8:  ebffff7a  bl       #0x2d8

Trace 0: 0x7fc8dc84dc40 [00000000/000004cc/0x10200040] virtio_serial_init
Chain 0: 0x7fc8dc84d2c0 [00000000/000002d8/0x10200040] virtio_init_queue
----------------
IN: virtio_serial_init
0x000004ec:  e51b3018  ldr      r3, [fp, #-0x18]
0x000004f0:  e2830a15  add      r0, r3, #0x15000
0x000004f4:  e51b3018  ldr      r3, [fp, #-0x18]
0x000004f8:  e2833b6e  add      r3, r3, #0x1b800
0x000004fc:  e2833080  add      r3, r3, #0x80
0x00000500:  e1a02003  mov      r2, r3
0x00000504:  e3a01b01  mov      r1, #0x400
0x00000508:  ebffff72  bl       #0x2d8

Trace 0: 0x7fc8dc84de40 [00000000/000004ec/0x10200040] virtio_serial_init
Chain 0: 0x7fc8dc84d2c0 [00000000/000002d8/0x10200040] virtio_init_queue
----------------
IN: virtio_serial_init
0x0000050c:  e59f0124  ldr      r0, [pc, #0x124]
0x00000510:  eb0005f5  bl       #0x1cec

Trace 0: 0x7fc8dc84e040 [00000000/0000050c/0x10200040] virtio_serial_init
Chain 0: 0x7fc8dc822380 [00000000/00001cec/0x10200040] puts
Chain 0: 0x7fc8dc822780 [00000000/00001c58/0x10200040] _puts_r
Chain 0: 0x7fc8dc822f80 [00000000/00006330/0x10200040] __sfvwrite_r
Chain 0: 0x7fc8dc82dd00 [00000000/00006424/0x10200040] __sfvwrite_r
Chain 0: 0x7fc8dc82e440 [00000000/00007280/0x10200040] memchr
Chain 0: 0x7fc8dc82f580 [00000000/00006694/0x10200040] __sfvwrite_r
Chain 0: 0x7fc8dc82ff00 [00000000/000074ac/0x10200040] memmove
Chain 0: 0x7fc8dc831580 [00000000/00006784/0x10200040] __sfvwrite_r
Chain 0: 0x7fc8dc82e440 [00000000/00007280/0x10200040] memchr
Chain 0: 0x7fc8dc82f580 [00000000/00006694/0x10200040] __sfvwrite_r
Chain 0: 0x7fc8dc82ff00 [00000000/000074ac/0x10200040] memmove
Chain 0: 0x7fc8dc831580 [00000000/00006784/0x10200040] __sfvwrite_r
Chain 0: 0x7fc8dc832940 [00000000/00005b7c/0x10200040] _fflush_r
Chain 0: 0x7fc8dc833b40 [00000000/000089f4/0x10200040] __swrite
Chain 0: 0x7fc8dc834140 [00000000/00009e70/0x10200040] _write_r
Chain 0: 0x7fc8dc834480 [00000000/0000b018/0x10200040] _write
Chain 0: 0x7fc8dc816380 [00000000/0000ad4c/0x10200040] findslot
Chain 0: 0x7fc8dc834740 [00000000/0000b02c/0x10200040] _write
Trace 0: 0x7fc8dc834b40 [00000000/0000b054/0x10200040] _write
Chain 0: 0x7fc8dc835340 [00000000/00009e98/0x10200040] _write_r
Chain 0: 0x7fc8dc835740 [00000000/00008a30/0x10200040] __swrite
Chain 0: 0x7fc8dc835a40 [00000000/00005ac8/0x10200040] __sflush_r
Chain 0: 0x7fc8dc836080 [00000000/00006764/0x10200040] __sfvwrite_r
Chain 0: 0x7fc8dc836600 [00000000/00001cc4/0x10200040] _puts_r
----------------
IN: virtio_serial_init
0x00000514:  e51b3018  ldr      r3, [fp, #-0x18]
0x00000518:  e2830b6e  add      r0, r3, #0x1b800
0x0000051c:  e280000c  add      r0, r0, #0xc
0x00000520:  e51b3018  ldr      r3, [fp, #-0x18]
0x00000524:  e2831b6e  add      r1, r3, #0x1b800
0x00000528:  e2811020  add      r1, r1, #0x20
0x0000052c:  e3a03b01  mov      r3, #0x400
0x00000530:  e3a02004  mov      r2, #4
0x00000534:  eb000104  bl       #0x94c

Trace 0: 0x7fc8dc84e1c0 [00000000/00000514/0x10200040] virtio_serial_init
----------------
IN: virtio_mmio_init_queue
0x0000094c:  e92d4800  push     {fp, lr}
0x00000950:  e28db004  add      fp, sp, #4
0x00000954:  e24dd020  sub      sp, sp, #0x20
0x00000958:  e50b0010  str      r0, [fp, #-0x10]
0x0000095c:  e50b1014  str      r1, [fp, #-0x14]
0x00000960:  e50b2018  str      r2, [fp, #-0x18]
0x00000964:  e50b301c  str      r3, [fp, #-0x1c]
0x00000968:  e51b3014  ldr      r3, [fp, #-0x14]
0x0000096c:  e51b2018  ldr      r2, [fp, #-0x18]
0x00000970:  e5832004  str      r2, [r3, #4]
0x00000974:  e51b3010  ldr      r3, [fp, #-0x10]
0x00000978:  e2833030  add      r3, r3, #0x30
0x0000097c:  e51b1018  ldr      r1, [fp, #-0x18]
0x00000980:  e1a00003  mov      r0, r3
0x00000984:  ebffff64  bl       #0x71c

Trace 0: 0x7fc8dc84e3c0 [00000000/0000094c/0x10200040] virtio_mmio_init_queue
Chain 0: 0x7fc8dc84ac80 [00000000/0000071c/0x10200040] volatile_write32
----------------
IN: virtio_mmio_init_queue
0x00000988:  e51b3010  ldr      r3, [fp, #-0x10]
0x0000098c:  e2833034  add      r3, r3, #0x34
0x00000990:  e1a00003  mov      r0, r3
0x00000994:  ebffff56  bl       #0x6f4

Trace 0: 0x7fc8dc84e880 [00000000/00000988/0x10200040] virtio_mmio_init_queue
Chain 0: 0x7fc8dc842f40 [00000000/000006f4/0x10200040] volatile_read32
----------------
IN: virtio_mmio_init_queue
0x00000998:  e50b0008  str      r0, [fp, #-8]
0x0000099c:  e51b2008  ldr      r2, [fp, #-8]
0x000009a0:  e51b301c  ldr      r3, [fp, #-0x1c]
0x000009a4:  e1520003  cmp      r2, r3
0x000009a8:  2a000001  bhs      #0x9b4

Trace 0: 0x7fc8dc84ea00 [00000000/00000998/0x10200040] virtio_mmio_init_queue
----------------
IN: virtio_mmio_init_queue
0x000009b4:  e51b3010  ldr      r3, [fp, #-0x10]
0x000009b8:  e2833038  add      r3, r3, #0x38
0x000009bc:  e51b101c  ldr      r1, [fp, #-0x1c]
0x000009c0:  e1a00003  mov      r0, r3
0x000009c4:  ebffff54  bl       #0x71c

Linking TBs 0x7fc8dc84ea00 [00000998] index 0 -> 0x7fc8dc84ec80 [000009b4]
Trace 0: 0x7fc8dc84ec80 [00000000/000009b4/0x10200040] virtio_mmio_init_queue
Chain 0: 0x7fc8dc84ac80 [00000000/0000071c/0x10200040] volatile_write32
----------------
IN: virtio_mmio_init_queue
0x000009c8:  e51b3010  ldr      r3, [fp, #-0x10]
0x000009cc:  e283303c  add      r3, r3, #0x3c
0x000009d0:  e3a01a01  mov      r1, #0x1000
0x000009d4:  e1a00003  mov      r0, r3
0x000009d8:  ebffff4f  bl       #0x71c

Trace 0: 0x7fc8dc84ee40 [00000000/000009c8/0x10200040] virtio_mmio_init_queue
Chain 0: 0x7fc8dc84ac80 [00000000/0000071c/0x10200040] volatile_write32
----------------
IN: virtio_mmio_init_queue
0x000009dc:  e51b3010  ldr      r3, [fp, #-0x10]
0x000009e0:  e2832040  add      r2, r3, #0x40
0x000009e4:  e51b3014  ldr      r3, [fp, #-0x14]
0x000009e8:  e5933010  ldr      r3, [r3, #0x10]
0x000009ec:  e1a03623  lsr      r3, r3, #0xc
0x000009f0:  e1a01003  mov      r1, r3
0x000009f4:  e1a00002  mov      r0, r2
0x000009f8:  ebffff47  bl       #0x71c

Trace 0: 0x7fc8dc84efc0 [00000000/000009dc/0x10200040] virtio_mmio_init_queue
Chain 0: 0x7fc8dc84ac80 [00000000/0000071c/0x10200040] volatile_write32
----------------
IN: virtio_mmio_init_queue
0x000009fc:  e51b3014  ldr      r3, [fp, #-0x14]
0x00000a00:  e5931004  ldr      r1, [r3, #4]
0x00000a04:  e51b3014  ldr      r3, [fp, #-0x14]
0x00000a08:  e5933010  ldr      r3, [r3, #0x10]
0x00000a0c:  e1a02003  mov      r2, r3
0x00000a10:  e51b3014  ldr      r3, [fp, #-0x14]
0x00000a14:  e5933014  ldr      r3, [r3, #0x14]
0x00000a18:  e1a00003  mov      r0, r3
0x00000a1c:  e51b3014  ldr      r3, [fp, #-0x14]
0x00000a20:  e5933018  ldr      r3, [r3, #0x18]
0x00000a24:  e58d3000  str      r3, [sp]
0x00000a28:  e1a03000  mov      r3, r0
0x00000a2c:  e59f0014  ldr      r0, [pc, #0x14]
0x00000a30:  eb000472  bl       #0x1c00

Trace 0: 0x7fc8dc84f200 [00000000/000009fc/0x10200040] virtio_mmio_init_queue
Chain 0: 0x7fc8dc837c40 [00000000/00001c00/0x10200040] printf
Chain 0: 0x7fc8dc838580 [00000000/00006914/0x10200040] _localeconv_r
Chain 0: 0x7fc8dc838700 [00000000/00001d80/0x10200040] _vfprintf_r
Chain 0: 0x7fc8dc8388c0 [00000000/00001d90/0x10200040] _vfprintf_r
----------------
IN: _vfprintf_r
0x0000210c:  e31a0020  tst      sl, #0x20
0x00002110:  e58d2040  str      r2, [sp, #0x40]
0x00002114:  0a0000fd  beq      #0x2510

Trace 0: 0x7fc8dc84f680 [00000000/0000210c/0x10200040] _vfprintf_r
----------------
IN: _vfprintf_r
0x00002510:  e59d3034  ldr      r3, [sp, #0x34]
0x00002514:  e4936004  ldr      r6, [r3], #4
0x00002518:  e31a0010  tst      sl, #0x10
0x0000251c:  e58d3034  str      r3, [sp, #0x34]
0x00002520:  0a0003c6  beq      #0x3440

Trace 0: 0x7fc8dc84f840 [00000000/00002510/0x10200040] _vfprintf_r
----------------
IN: _vfprintf_r
0x00003440:  e31a0040  tst      sl, #0x40
0x00003444:  11a06806  lslne    r6, r6, #0x10
0x00003448:  11a06826  lsrne    r6, r6, #0x10
0x0000344c:  e3a07000  mov      r7, #0
0x00003450:  e3a03001  mov      r3, #1
0x00003454:  eafffb35  b        #0x2130

Trace 0: 0x7fc8dc84fac0 [00000000/00003440/0x10200040] _vfprintf_r
Chain 0: 0x7fc8dc844980 [00000000/00002130/0x10200040] _vfprintf_r
Chain 0: 0x7fc8dc844b40 [00000000/00002b50/0x10200040] _vfprintf_r
Linking TBs 0x7fc8dc844b40 [00002b50] index 0 -> 0x7fc8dc83b240 [00002848]
Trace 0: 0x7fc8dc83b240 [00000000/00002848/0x10200040] _vfprintf_r
----------------
IN: _vfprintf_r
0x00002854:  e2866030  add      r6, r6, #0x30
0x00002858:  e28d30bf  add      r3, sp, #0xbf
0x0000285c:  e5cd60bf  strb     r6, [sp, #0xbf]
0x00002860:  e58da020  str      sl, [sp, #0x20]
0x00002864:  e3a07001  mov      r7, #1
0x00002868:  e58d303c  str      r3, [sp, #0x3c]
0x0000286c:  eafffe46  b        #0x218c

Linking TBs 0x7fc8dc83b240 [00002848] index 1 -> 0x7fc8dc84fc40 [00002854]
Trace 0: 0x7fc8dc84fc40 [00000000/00002854/0x10200040] _vfprintf_r
Chain 0: 0x7fc8dc83dd00 [00000000/0000218c/0x10200040] _vfprintf_r
Chain 0: 0x7fc8dc83f5c0 [00000000/00002bf8/0x10200040] _vfprintf_r
Chain 0: 0x7fc8dc83f740 [00000000/00002c00/0x10200040] _vfprintf_r
Chain 0: 0x7fc8dc83f8c0 [00000000/00008b44/0x10200040] __sprint_r
Chain 0: 0x7fc8dc822f80 [00000000/00006330/0x10200040] __sfvwrite_r
Chain 0: 0x7fc8dc82dd00 [00000000/00006424/0x10200040] __sfvwrite_r
Chain 0: 0x7fc8dc82e440 [00000000/00007280/0x10200040] memchr
Chain 0: 0x7fc8dc82f580 [00000000/00006694/0x10200040] __sfvwrite_r
Chain 0: 0x7fc8dc82ff00 [00000000/000074ac/0x10200040] memmove
Chain 0: 0x7fc8dc831580 [00000000/00006784/0x10200040] __sfvwrite_r
Chain 0: 0x7fc8dc82e440 [00000000/00007280/0x10200040] memchr
Chain 0: 0x7fc8dc82f580 [00000000/00006694/0x10200040] __sfvwrite_r
Chain 0: 0x7fc8dc82ff00 [00000000/000074ac/0x10200040] memmove
Chain 0: 0x7fc8dc831580 [00000000/00006784/0x10200040] __sfvwrite_r
Chain 0: 0x7fc8dc840b80 [00000000/00008b40/0x10200040] __sprint_r.part.0
Chain 0: 0x7fc8dc841180 [00000000/00002c08/0x10200040] _vfprintf_r
Chain 0: 0x7fc8dc841300 [00000000/000022f8/0x10200040] _vfprintf_r
Chain 0: 0x7fc8dc839880 [00000000/00001e54/0x10200040] _vfprintf_r
Chain 0: 0x7fc8dc8494c0 [00000000/0000272c/0x10200040] _vfprintf_r
Chain 0: 0x7fc8dc849640 [00000000/00001ee8/0x10200040] _vfprintf_r
Chain 0: 0x7fc8dc849840 [00000000/00002344/0x10200040] _vfprintf_r
Chain 0: 0x7fc8dc849bc0 [00000000/00001eec/0x10200040] _vfprintf_r
Chain 0: 0x7fc8dc843f80 [00000000/0000238c/0x10200040] _vfprintf_r
Chain 0: 0x7fc8dc844280 [00000000/0000267c/0x10200040] _vfprintf_r
Chain 0: 0x7fc8dc844640 [00000000/00003278/0x10200040] _vfprintf_r
Chain 0: 0x7fc8dc844740 [00000000/000023bc/0x10200040] _vfprintf_r
Chain 0: 0x7fc8dc844880 [00000000/0000283c/0x10200040] _vfprintf_r
Chain 0: 0x7fc8dc844980 [00000000/00002130/0x10200040] _vfprintf_r
Chain 0: 0x7fc8dc844b40 [00000000/00002b50/0x10200040] _vfprintf_r
Chain 0: 0x7fc8dc83dd00 [00000000/0000218c/0x10200040] _vfprintf_r
Chain 0: 0x7fc8dc849dc0 [00000000/0000298c/0x10200040] _vfprintf_r
Chain 0: 0x7fc8dc83e9c0 [00000000/00002274/0x10200040] _vfprintf_r
Chain 0: 0x7fc8dc83f5c0 [00000000/00002bf8/0x10200040] _vfprintf_r
Chain 0: 0x7fc8dc83f740 [00000000/00002c00/0x10200040] _vfprintf_r
Chain 0: 0x7fc8dc83f8c0 [00000000/00008b44/0x10200040] __sprint_r
Chain 0: 0x7fc8dc822f80 [00000000/00006330/0x10200040] __sfvwrite_r
Chain 0: 0x7fc8dc82dd00 [00000000/00006424/0x10200040] __sfvwrite_r
Chain 0: 0x7fc8dc82e440 [00000000/00007280/0x10200040] memchr
Chain 0: 0x7fc8dc82f580 [00000000/00006694/0x10200040] __sfvwrite_r
Chain 0: 0x7fc8dc82ff00 [00000000/000074ac/0x10200040] memmove
Chain 0: 0x7fc8dc831580 [00000000/00006784/0x10200040] __sfvwrite_r
Chain 0: 0x7fc8dc82e440 [00000000/00007280/0x10200040] memchr
Chain 0: 0x7fc8dc82f580 [00000000/00006694/0x10200040] __sfvwrite_r
Chain 0: 0x7fc8dc82ff00 [00000000/000074ac/0x10200040] memmove
Chain 0: 0x7fc8dc831580 [00000000/00006784/0x10200040] __sfvwrite_r
Chain 0: 0x7fc8dc82e440 [00000000/00007280/0x10200040] memchr
Chain 0: 0x7fc8dc82f580 [00000000/00006694/0x10200040] __sfvwrite_r
Chain 0: 0x7fc8dc82ff00 [00000000/000074ac/0x10200040] memmove
Chain 0: 0x7fc8dc831580 [00000000/00006784/0x10200040] __sfvwrite_r
Chain 0: 0x7fc8dc840b80 [00000000/00008b40/0x10200040] __sprint_r.part.0
Chain 0: 0x7fc8dc841180 [00000000/00002c08/0x10200040] _vfprintf_r
Chain 0: 0x7fc8dc841300 [00000000/000022f8/0x10200040] _vfprintf_r
Chain 0: 0x7fc8dc839880 [00000000/00001e54/0x10200040] _vfprintf_r
Chain 0: 0x7fc8dc8494c0 [00000000/0000272c/0x10200040] _vfprintf_r
Chain 0: 0x7fc8dc849640 [00000000/00001ee8/0x10200040] _vfprintf_r
Chain 0: 0x7fc8dc849840 [00000000/00002344/0x10200040] _vfprintf_r
Chain 0: 0x7fc8dc849bc0 [00000000/00001eec/0x10200040] _vfprintf_r
Chain 0: 0x7fc8dc843f80 [00000000/0000238c/0x10200040] _vfprintf_r
Chain 0: 0x7fc8dc844280 [00000000/0000267c/0x10200040] _vfprintf_r
Chain 0: 0x7fc8dc844640 [00000000/00003278/0x10200040] _vfprintf_r
Chain 0: 0x7fc8dc844740 [00000000/000023bc/0x10200040] _vfprintf_r
Chain 0: 0x7fc8dc844880 [00000000/0000283c/0x10200040] _vfprintf_r
Chain 0: 0x7fc8dc844980 [00000000/00002130/0x10200040] _vfprintf_r
Chain 0: 0x7fc8dc844b40 [00000000/00002b50/0x10200040] _vfprintf_r
Chain 0: 0x7fc8dc83dd00 [00000000/0000218c/0x10200040] _vfprintf_r
Chain 0: 0x7fc8dc849dc0 [00000000/0000298c/0x10200040] _vfprintf_r
Chain 0: 0x7fc8dc83e9c0 [00000000/00002274/0x10200040] _vfprintf_r
Chain 0: 0x7fc8dc83f5c0 [00000000/00002bf8/0x10200040] _vfprintf_r
Chain 0: 0x7fc8dc83f740 [00000000/00002c00/0x10200040] _vfprintf_r
Chain 0: 0x7fc8dc83f8c0 [00000000/00008b44/0x10200040] __sprint_r
Chain 0: 0x7fc8dc822f80 [00000000/00006330/0x10200040] __sfvwrite_r
Chain 0: 0x7fc8dc82dd00 [00000000/00006424/0x10200040] __sfvwrite_r
Chain 0: 0x7fc8dc82e440 [00000000/00007280/0x10200040] memchr
Chain 0: 0x7fc8dc82f580 [00000000/00006694/0x10200040] __sfvwrite_r
Chain 0: 0x7fc8dc82ff00 [00000000/000074ac/0x10200040] memmove
Chain 0: 0x7fc8dc831580 [00000000/00006784/0x10200040] __sfvwrite_r
Chain 0: 0x7fc8dc82e440 [00000000/00007280/0x10200040] memchr
Chain 0: 0x7fc8dc82f580 [00000000/00006694/0x10200040] __sfvwrite_r
Chain 0: 0x7fc8dc82ff00 [00000000/000074ac/0x10200040] memmove
Chain 0: 0x7fc8dc831580 [00000000/00006784/0x10200040] __sfvwrite_r
Chain 0: 0x7fc8dc82e440 [00000000/00007280/0x10200040] memchr
Chain 0: 0x7fc8dc82f580 [00000000/00006694/0x10200040] __sfvwrite_r
Chain 0: 0x7fc8dc82ff00 [00000000/000074ac/0x10200040] memmove
Chain 0: 0x7fc8dc831580 [00000000/00006784/0x10200040] __sfvwrite_r
Chain 0: 0x7fc8dc840b80 [00000000/00008b40/0x10200040] __sprint_r.part.0
Chain 0: 0x7fc8dc841180 [00000000/00002c08/0x10200040] _vfprintf_r
Chain 0: 0x7fc8dc841300 [00000000/000022f8/0x10200040] _vfprintf_r
Chain 0: 0x7fc8dc839880 [00000000/00001e54/0x10200040] _vfprintf_r
Chain 0: 0x7fc8dc8494c0 [00000000/0000272c/0x10200040] _vfprintf_r
Chain 0: 0x7fc8dc849640 [00000000/00001ee8/0x10200040] _vfprintf_r
Chain 0: 0x7fc8dc849840 [00000000/00002344/0x10200040] _vfprintf_r
Chain 0: 0x7fc8dc849bc0 [00000000/00001eec/0x10200040] _vfprintf_r
Chain 0: 0x7fc8dc843f80 [00000000/0000238c/0x10200040] _vfprintf_r
Chain 0: 0x7fc8dc844280 [00000000/0000267c/0x10200040] _vfprintf_r
Chain 0: 0x7fc8dc844640 [00000000/00003278/0x10200040] _vfprintf_r
Chain 0: 0x7fc8dc844740 [00000000/000023bc/0x10200040] _vfprintf_r
Chain 0: 0x7fc8dc844880 [00000000/0000283c/0x10200040] _vfprintf_r
Chain 0: 0x7fc8dc844980 [00000000/00002130/0x10200040] _vfprintf_r
Chain 0: 0x7fc8dc844b40 [00000000/00002b50/0x10200040] _vfprintf_r
Chain 0: 0x7fc8dc83dd00 [00000000/0000218c/0x10200040] _vfprintf_r
Chain 0: 0x7fc8dc849dc0 [00000000/0000298c/0x10200040] _vfprintf_r
Chain 0: 0x7fc8dc83e9c0 [00000000/00002274/0x10200040] _vfprintf_r
Chain 0: 0x7fc8dc83f5c0 [00000000/00002bf8/0x10200040] _vfprintf_r
Chain 0: 0x7fc8dc83f740 [00000000/00002c00/0x10200040] _vfprintf_r
Chain 0: 0x7fc8dc83f8c0 [00000000/00008b44/0x10200040] __sprint_r
Chain 0: 0x7fc8dc822f80 [00000000/00006330/0x10200040] __sfvwrite_r
Chain 0: 0x7fc8dc82dd00 [00000000/00006424/0x10200040] __sfvwrite_r
Chain 0: 0x7fc8dc82e440 [00000000/00007280/0x10200040] memchr
Chain 0: 0x7fc8dc82f580 [00000000/00006694/0x10200040] __sfvwrite_r
Chain 0: 0x7fc8dc82ff00 [00000000/000074ac/0x10200040] memmove
Chain 0: 0x7fc8dc831580 [00000000/00006784/0x10200040] __sfvwrite_r
Chain 0: 0x7fc8dc82e440 [00000000/00007280/0x10200040] memchr
Chain 0: 0x7fc8dc82f580 [00000000/00006694/0x10200040] __sfvwrite_r
Chain 0: 0x7fc8dc82ff00 [00000000/000074ac/0x10200040] memmove
Chain 0: 0x7fc8dc831580 [00000000/00006784/0x10200040] __sfvwrite_r
Chain 0: 0x7fc8dc82e440 [00000000/00007280/0x10200040] memchr
Chain 0: 0x7fc8dc82f580 [00000000/00006694/0x10200040] __sfvwrite_r
Chain 0: 0x7fc8dc82ff00 [00000000/000074ac/0x10200040] memmove
Chain 0: 0x7fc8dc831580 [00000000/00006784/0x10200040] __sfvwrite_r
Chain 0: 0x7fc8dc840b80 [00000000/00008b40/0x10200040] __sprint_r.part.0
Chain 0: 0x7fc8dc841180 [00000000/00002c08/0x10200040] _vfprintf_r
Chain 0: 0x7fc8dc841300 [00000000/000022f8/0x10200040] _vfprintf_r
Chain 0: 0x7fc8dc839880 [00000000/00001e54/0x10200040] _vfprintf_r
Chain 0: 0x7fc8dc842000 [00000000/000020d4/0x10200040] _vfprintf_r
Chain 0: 0x7fc8dc83f8c0 [00000000/00008b44/0x10200040] __sprint_r
Chain 0: 0x7fc8dc822f80 [00000000/00006330/0x10200040] __sfvwrite_r
Chain 0: 0x7fc8dc82dd00 [00000000/00006424/0x10200040] __sfvwrite_r
Chain 0: 0x7fc8dc82e440 [00000000/00007280/0x10200040] memchr
Chain 0: 0x7fc8dc82f580 [00000000/00006694/0x10200040] __sfvwrite_r
Chain 0: 0x7fc8dc82ff00 [00000000/000074ac/0x10200040] memmove
Chain 0: 0x7fc8dc831580 [00000000/00006784/0x10200040] __sfvwrite_r
Chain 0: 0x7fc8dc832940 [00000000/00005b7c/0x10200040] _fflush_r
Chain 0: 0x7fc8dc833b40 [00000000/000089f4/0x10200040] __swrite
Chain 0: 0x7fc8dc834140 [00000000/00009e70/0x10200040] _write_r
Chain 0: 0x7fc8dc834480 [00000000/0000b018/0x10200040] _write
Chain 0: 0x7fc8dc816380 [00000000/0000ad4c/0x10200040] findslot
Chain 0: 0x7fc8dc834740 [00000000/0000b02c/0x10200040] _write
Trace 0: 0x7fc8dc834b40 [00000000/0000b054/0x10200040] _write
Chain 0: 0x7fc8dc835340 [00000000/00009e98/0x10200040] _write_r
Chain 0: 0x7fc8dc835740 [00000000/00008a30/0x10200040] __swrite
Chain 0: 0x7fc8dc835a40 [00000000/00005ac8/0x10200040] __sflush_r
Chain 0: 0x7fc8dc836080 [00000000/00006764/0x10200040] __sfvwrite_r
Chain 0: 0x7fc8dc840b80 [00000000/00008b40/0x10200040] __sprint_r.part.0
Chain 0: 0x7fc8dc842280 [00000000/000020ec/0x10200040] _vfprintf_r
Chain 0: 0x7fc8dc842900 [00000000/00001c2c/0x10200040] printf
----------------
IN: virtio_mmio_init_queue
0x00000a34:  e3a03000  mov      r3, #0
0x00000a38:  e1a00003  mov      r0, r3
0x00000a3c:  e24bd004  sub      sp, fp, #4
0x00000a40:  e8bd4800  pop      {fp, lr}
0x00000a44:  e12fff1e  bx       lr

Trace 0: 0x7fc8dc84fe80 [00000000/00000a34/0x10200040] virtio_mmio_init_queue
----------------
IN: virtio_serial_init
0x00000538:  e51b3018  ldr      r3, [fp, #-0x18]
0x0000053c:  e2830b6e  add      r0, r3, #0x1b800
0x00000540:  e280000c  add      r0, r0, #0xc
0x00000544:  e51b3018  ldr      r3, [fp, #-0x18]
0x00000548:  e2831b6e  add      r1, r3, #0x1b800
0x0000054c:  e2811040  add      r1, r1, #0x40
0x00000550:  e3a03b01  mov      r3, #0x400
0x00000554:  e3a02005  mov      r2, #5
0x00000558:  eb0000fb  bl       #0x94c

Trace 0: 0x7fc8dc850080 [00000000/00000538/0x10200040] virtio_serial_init
Chain 0: 0x7fc8dc84e3c0 [00000000/0000094c/0x10200040] virtio_mmio_init_queue
Chain 0: 0x7fc8dc84ac80 [00000000/0000071c/0x10200040] volatile_write32
Chain 0: 0x7fc8dc84e880 [00000000/00000988/0x10200040] virtio_mmio_init_queue
Chain 0: 0x7fc8dc842f40 [00000000/000006f4/0x10200040] volatile_read32
Chain 0: 0x7fc8dc84ea00 [00000000/00000998/0x10200040] virtio_mmio_init_queue
Chain 0: 0x7fc8dc84ac80 [00000000/0000071c/0x10200040] volatile_write32
Chain 0: 0x7fc8dc84ee40 [00000000/000009c8/0x10200040] virtio_mmio_init_queue
Chain 0: 0x7fc8dc84ac80 [00000000/0000071c/0x10200040] volatile_write32
Chain 0: 0x7fc8dc84efc0 [00000000/000009dc/0x10200040] virtio_mmio_init_queue
Chain 0: 0x7fc8dc84ac80 [00000000/0000071c/0x10200040] volatile_write32
Chain 0: 0x7fc8dc84f200 [00000000/000009fc/0x10200040] virtio_mmio_init_queue
Chain 0: 0x7fc8dc837c40 [00000000/00001c00/0x10200040] printf
Chain 0: 0x7fc8dc838580 [00000000/00006914/0x10200040] _localeconv_r
Chain 0: 0x7fc8dc838700 [00000000/00001d80/0x10200040] _vfprintf_r
Chain 0: 0x7fc8dc8388c0 [00000000/00001d90/0x10200040] _vfprintf_r
Chain 0: 0x7fc8dc84f680 [00000000/0000210c/0x10200040] _vfprintf_r
Chain 0: 0x7fc8dc84f840 [00000000/00002510/0x10200040] _vfprintf_r
Chain 0: 0x7fc8dc84fac0 [00000000/00003440/0x10200040] _vfprintf_r
Chain 0: 0x7fc8dc844980 [00000000/00002130/0x10200040] _vfprintf_r
Chain 0: 0x7fc8dc844b40 [00000000/00002b50/0x10200040] _vfprintf_r
Chain 0: 0x7fc8dc83dd00 [00000000/0000218c/0x10200040] _vfprintf_r
Chain 0: 0x7fc8dc83f5c0 [00000000/00002bf8/0x10200040] _vfprintf_r
Chain 0: 0x7fc8dc83f740 [00000000/00002c00/0x10200040] _vfprintf_r
Chain 0: 0x7fc8dc83f8c0 [00000000/00008b44/0x10200040] __sprint_r
Chain 0: 0x7fc8dc822f80 [00000000/00006330/0x10200040] __sfvwrite_r
Chain 0: 0x7fc8dc82dd00 [00000000/00006424/0x10200040] __sfvwrite_r
Chain 0: 0x7fc8dc82e440 [00000000/00007280/0x10200040] memchr
Chain 0: 0x7fc8dc82f580 [00000000/00006694/0x10200040] __sfvwrite_r
Chain 0: 0x7fc8dc82ff00 [00000000/000074ac/0x10200040] memmove
Chain 0: 0x7fc8dc831580 [00000000/00006784/0x10200040] __sfvwrite_r
Chain 0: 0x7fc8dc82e440 [00000000/00007280/0x10200040] memchr
Chain 0: 0x7fc8dc82f580 [00000000/00006694/0x10200040] __sfvwrite_r
Chain 0: 0x7fc8dc82ff00 [00000000/000074ac/0x10200040] memmove
Chain 0: 0x7fc8dc831580 [00000000/00006784/0x10200040] __sfvwrite_r
Chain 0: 0x7fc8dc840b80 [00000000/00008b40/0x10200040] __sprint_r.part.0
Chain 0: 0x7fc8dc841180 [00000000/00002c08/0x10200040] _vfprintf_r
Chain 0: 0x7fc8dc841300 [00000000/000022f8/0x10200040] _vfprintf_r
Chain 0: 0x7fc8dc839880 [00000000/00001e54/0x10200040] _vfprintf_r
Chain 0: 0x7fc8dc8494c0 [00000000/0000272c/0x10200040] _vfprintf_r
Chain 0: 0x7fc8dc849640 [00000000/00001ee8/0x10200040] _vfprintf_r
Chain 0: 0x7fc8dc849840 [00000000/00002344/0x10200040] _vfprintf_r
Chain 0: 0x7fc8dc849bc0 [00000000/00001eec/0x10200040] _vfprintf_r
Chain 0: 0x7fc8dc843f80 [00000000/0000238c/0x10200040] _vfprintf_r
Chain 0: 0x7fc8dc844280 [00000000/0000267c/0x10200040] _vfprintf_r
Chain 0: 0x7fc8dc844640 [00000000/00003278/0x10200040] _vfprintf_r
Chain 0: 0x7fc8dc844740 [00000000/000023bc/0x10200040] _vfprintf_r
Chain 0: 0x7fc8dc844880 [00000000/0000283c/0x10200040] _vfprintf_r
Chain 0: 0x7fc8dc844980 [00000000/00002130/0x10200040] _vfprintf_r
Chain 0: 0x7fc8dc844b40 [00000000/00002b50/0x10200040] _vfprintf_r
Chain 0: 0x7fc8dc83dd00 [00000000/0000218c/0x10200040] _vfprintf_r
Chain 0: 0x7fc8dc849dc0 [00000000/0000298c/0x10200040] _vfprintf_r
Chain 0: 0x7fc8dc83e9c0 [00000000/00002274/0x10200040] _vfprintf_r
Chain 0: 0x7fc8dc83f5c0 [00000000/00002bf8/0x10200040] _vfprintf_r
Chain 0: 0x7fc8dc83f740 [00000000/00002c00/0x10200040] _vfprintf_r
Chain 0: 0x7fc8dc83f8c0 [00000000/00008b44/0x10200040] __sprint_r
Chain 0: 0x7fc8dc822f80 [00000000/00006330/0x10200040] __sfvwrite_r
Chain 0: 0x7fc8dc82dd00 [00000000/00006424/0x10200040] __sfvwrite_r
Chain 0: 0x7fc8dc82e440 [00000000/00007280/0x10200040] memchr
Chain 0: 0x7fc8dc82f580 [00000000/00006694/0x10200040] __sfvwrite_r
Chain 0: 0x7fc8dc82ff00 [00000000/000074ac/0x10200040] memmove
Chain 0: 0x7fc8dc831580 [00000000/00006784/0x10200040] __sfvwrite_r
Chain 0: 0x7fc8dc82e440 [00000000/00007280/0x10200040] memchr
Chain 0: 0x7fc8dc82f580 [00000000/00006694/0x10200040] __sfvwrite_r
Chain 0: 0x7fc8dc82ff00 [00000000/000074ac/0x10200040] memmove
Chain 0: 0x7fc8dc831580 [00000000/00006784/0x10200040] __sfvwrite_r
Chain 0: 0x7fc8dc82e440 [00000000/00007280/0x10200040] memchr
Chain 0: 0x7fc8dc82f580 [00000000/00006694/0x10200040] __sfvwrite_r
Chain 0: 0x7fc8dc82ff00 [00000000/000074ac/0x10200040] memmove
Chain 0: 0x7fc8dc831580 [00000000/00006784/0x10200040] __sfvwrite_r
Chain 0: 0x7fc8dc840b80 [00000000/00008b40/0x10200040] __sprint_r.part.0
Chain 0: 0x7fc8dc841180 [00000000/00002c08/0x10200040] _vfprintf_r
Chain 0: 0x7fc8dc841300 [00000000/000022f8/0x10200040] _vfprintf_r
Chain 0: 0x7fc8dc839880 [00000000/00001e54/0x10200040] _vfprintf_r
Chain 0: 0x7fc8dc8494c0 [00000000/0000272c/0x10200040] _vfprintf_r
Chain 0: 0x7fc8dc849640 [00000000/00001ee8/0x10200040] _vfprintf_r
Chain 0: 0x7fc8dc849840 [00000000/00002344/0x10200040] _vfprintf_r
Chain 0: 0x7fc8dc849bc0 [00000000/00001eec/0x10200040] _vfprintf_r
Chain 0: 0x7fc8dc843f80 [00000000/0000238c/0x10200040] _vfprintf_r
Chain 0: 0x7fc8dc844280 [00000000/0000267c/0x10200040] _vfprintf_r
Chain 0: 0x7fc8dc844640 [00000000/00003278/0x10200040] _vfprintf_r
Chain 0: 0x7fc8dc844740 [00000000/000023bc/0x10200040] _vfprintf_r
Chain 0: 0x7fc8dc844880 [00000000/0000283c/0x10200040] _vfprintf_r
Chain 0: 0x7fc8dc844980 [00000000/00002130/0x10200040] _vfprintf_r
Chain 0: 0x7fc8dc844b40 [00000000/00002b50/0x10200040] _vfprintf_r
Chain 0: 0x7fc8dc83dd00 [00000000/0000218c/0x10200040] _vfprintf_r
Chain 0: 0x7fc8dc849dc0 [00000000/0000298c/0x10200040] _vfprintf_r
Chain 0: 0x7fc8dc83e9c0 [00000000/00002274/0x10200040] _vfprintf_r
Chain 0: 0x7fc8dc83f5c0 [00000000/00002bf8/0x10200040] _vfprintf_r
Chain 0: 0x7fc8dc83f740 [00000000/00002c00/0x10200040] _vfprintf_r
Chain 0: 0x7fc8dc83f8c0 [00000000/00008b44/0x10200040] __sprint_r
Chain 0: 0x7fc8dc822f80 [00000000/00006330/0x10200040] __sfvwrite_r
Chain 0: 0x7fc8dc82dd00 [00000000/00006424/0x10200040] __sfvwrite_r
Chain 0: 0x7fc8dc82e440 [00000000/00007280/0x10200040] memchr
Chain 0: 0x7fc8dc82f580 [00000000/00006694/0x10200040] __sfvwrite_r
Chain 0: 0x7fc8dc82ff00 [00000000/000074ac/0x10200040] memmove
Chain 0: 0x7fc8dc831580 [00000000/00006784/0x10200040] __sfvwrite_r
Chain 0: 0x7fc8dc82e440 [00000000/00007280/0x10200040] memchr
Chain 0: 0x7fc8dc82f580 [00000000/00006694/0x10200040] __sfvwrite_r
Chain 0: 0x7fc8dc82ff00 [00000000/000074ac/0x10200040] memmove
Chain 0: 0x7fc8dc831580 [00000000/00006784/0x10200040] __sfvwrite_r
Chain 0: 0x7fc8dc82e440 [00000000/00007280/0x10200040] memchr
Chain 0: 0x7fc8dc82f580 [00000000/00006694/0x10200040] __sfvwrite_r
Chain 0: 0x7fc8dc82ff00 [00000000/000074ac/0x10200040] memmove
Chain 0: 0x7fc8dc831580 [00000000/00006784/0x10200040] __sfvwrite_r
Chain 0: 0x7fc8dc840b80 [00000000/00008b40/0x10200040] __sprint_r.part.0
Chain 0: 0x7fc8dc841180 [00000000/00002c08/0x10200040] _vfprintf_r
Chain 0: 0x7fc8dc841300 [00000000/000022f8/0x10200040] _vfprintf_r
Chain 0: 0x7fc8dc839880 [00000000/00001e54/0x10200040] _vfprintf_r
Chain 0: 0x7fc8dc8494c0 [00000000/0000272c/0x10200040] _vfprintf_r
Chain 0: 0x7fc8dc849640 [00000000/00001ee8/0x10200040] _vfprintf_r
Chain 0: 0x7fc8dc849840 [00000000/00002344/0x10200040] _vfprintf_r
Chain 0: 0x7fc8dc849bc0 [00000000/00001eec/0x10200040] _vfprintf_r
Chain 0: 0x7fc8dc843f80 [00000000/0000238c/0x10200040] _vfprintf_r
Chain 0: 0x7fc8dc844280 [00000000/0000267c/0x10200040] _vfprintf_r
Chain 0: 0x7fc8dc844640 [00000000/00003278/0x10200040] _vfprintf_r
Chain 0: 0x7fc8dc844740 [00000000/000023bc/0x10200040] _vfprintf_r
Chain 0: 0x7fc8dc844880 [00000000/0000283c/0x10200040] _vfprintf_r
Chain 0: 0x7fc8dc844980 [00000000/00002130/0x10200040] _vfprintf_r
Chain 0: 0x7fc8dc844b40 [00000000/00002b50/0x10200040] _vfprintf_r
Chain 0: 0x7fc8dc83dd00 [00000000/0000218c/0x10200040] _vfprintf_r
Chain 0: 0x7fc8dc849dc0 [00000000/0000298c/0x10200040] _vfprintf_r
Chain 0: 0x7fc8dc83e9c0 [00000000/00002274/0x10200040] _vfprintf_r
Chain 0: 0x7fc8dc83f5c0 [00000000/00002bf8/0x10200040] _vfprintf_r
Chain 0: 0x7fc8dc83f740 [00000000/00002c00/0x10200040] _vfprintf_r
Chain 0: 0x7fc8dc83f8c0 [00000000/00008b44/0x10200040] __sprint_r
Chain 0: 0x7fc8dc822f80 [00000000/00006330/0x10200040] __sfvwrite_r
Chain 0: 0x7fc8dc82dd00 [00000000/00006424/0x10200040] __sfvwrite_r
Chain 0: 0x7fc8dc82e440 [00000000/00007280/0x10200040] memchr
Chain 0: 0x7fc8dc82f580 [00000000/00006694/0x10200040] __sfvwrite_r
Chain 0: 0x7fc8dc82ff00 [00000000/000074ac/0x10200040] memmove
Chain 0: 0x7fc8dc831580 [00000000/00006784/0x10200040] __sfvwrite_r
Chain 0: 0x7fc8dc82e440 [00000000/00007280/0x10200040] memchr
Chain 0: 0x7fc8dc82f580 [00000000/00006694/0x10200040] __sfvwrite_r
Chain 0: 0x7fc8dc82ff00 [00000000/000074ac/0x10200040] memmove
Chain 0: 0x7fc8dc831580 [00000000/00006784/0x10200040] __sfvwrite_r
Chain 0: 0x7fc8dc82e440 [00000000/00007280/0x10200040] memchr
Chain 0: 0x7fc8dc82f580 [00000000/00006694/0x10200040] __sfvwrite_r
Chain 0: 0x7fc8dc82ff00 [00000000/000074ac/0x10200040] memmove
Chain 0: 0x7fc8dc831580 [00000000/00006784/0x10200040] __sfvwrite_r
Chain 0: 0x7fc8dc840b80 [00000000/00008b40/0x10200040] __sprint_r.part.0
Chain 0: 0x7fc8dc841180 [00000000/00002c08/0x10200040] _vfprintf_r
Chain 0: 0x7fc8dc841300 [00000000/000022f8/0x10200040] _vfprintf_r
Chain 0: 0x7fc8dc839880 [00000000/00001e54/0x10200040] _vfprintf_r
Chain 0: 0x7fc8dc842000 [00000000/000020d4/0x10200040] _vfprintf_r
Chain 0: 0x7fc8dc83f8c0 [00000000/00008b44/0x10200040] __sprint_r
Chain 0: 0x7fc8dc822f80 [00000000/00006330/0x10200040] __sfvwrite_r
Chain 0: 0x7fc8dc82dd00 [00000000/00006424/0x10200040] __sfvwrite_r
Chain 0: 0x7fc8dc82e440 [00000000/00007280/0x10200040] memchr
Chain 0: 0x7fc8dc82f580 [00000000/00006694/0x10200040] __sfvwrite_r
Chain 0: 0x7fc8dc82ff00 [00000000/000074ac/0x10200040] memmove
Chain 0: 0x7fc8dc831580 [00000000/00006784/0x10200040] __sfvwrite_r
Chain 0: 0x7fc8dc832940 [00000000/00005b7c/0x10200040] _fflush_r
Chain 0: 0x7fc8dc833b40 [00000000/000089f4/0x10200040] __swrite
Chain 0: 0x7fc8dc834140 [00000000/00009e70/0x10200040] _write_r
Chain 0: 0x7fc8dc834480 [00000000/0000b018/0x10200040] _write
Chain 0: 0x7fc8dc816380 [00000000/0000ad4c/0x10200040] findslot
Chain 0: 0x7fc8dc834740 [00000000/0000b02c/0x10200040] _write
Trace 0: 0x7fc8dc834b40 [00000000/0000b054/0x10200040] _write
Chain 0: 0x7fc8dc835340 [00000000/00009e98/0x10200040] _write_r
Chain 0: 0x7fc8dc835740 [00000000/00008a30/0x10200040] __swrite
Chain 0: 0x7fc8dc835a40 [00000000/00005ac8/0x10200040] __sflush_r
Chain 0: 0x7fc8dc836080 [00000000/00006764/0x10200040] __sfvwrite_r
Chain 0: 0x7fc8dc840b80 [00000000/00008b40/0x10200040] __sprint_r.part.0
Chain 0: 0x7fc8dc842280 [00000000/000020ec/0x10200040] _vfprintf_r
Chain 0: 0x7fc8dc842900 [00000000/00001c2c/0x10200040] printf
Chain 0: 0x7fc8dc84fe80 [00000000/00000a34/0x10200040] virtio_mmio_init_queue
----------------
IN: virtio_serial_init
0x0000055c:  e51b3018  ldr      r3, [fp, #-0x18]
0x00000560:  e2830b6e  add      r0, r3, #0x1b800
0x00000564:  e280000c  add      r0, r0, #0xc
0x00000568:  e51b3018  ldr      r3, [fp, #-0x18]
0x0000056c:  e2831b6e  add      r1, r3, #0x1b800
0x00000570:  e2811060  add      r1, r1, #0x60
0x00000574:  e3a03b01  mov      r3, #0x400
0x00000578:  e3a02002  mov      r2, #2
0x0000057c:  eb0000f2  bl       #0x94c

Trace 0: 0x7fc8dc850280 [00000000/0000055c/0x10200040] virtio_serial_init
Chain 0: 0x7fc8dc84e3c0 [00000000/0000094c/0x10200040] virtio_mmio_init_queue
Chain 0: 0x7fc8dc84ac80 [00000000/0000071c/0x10200040] volatile_write32
Chain 0: 0x7fc8dc84e880 [00000000/00000988/0x10200040] virtio_mmio_init_queue
Chain 0: 0x7fc8dc842f40 [00000000/000006f4/0x10200040] volatile_read32
Chain 0: 0x7fc8dc84ea00 [00000000/00000998/0x10200040] virtio_mmio_init_queue
Chain 0: 0x7fc8dc84ac80 [00000000/0000071c/0x10200040] volatile_write32
Chain 0: 0x7fc8dc84ee40 [00000000/000009c8/0x10200040] virtio_mmio_init_queue
Chain 0: 0x7fc8dc84ac80 [00000000/0000071c/0x10200040] volatile_write32
Chain 0: 0x7fc8dc84efc0 [00000000/000009dc/0x10200040] virtio_mmio_init_queue
Chain 0: 0x7fc8dc84ac80 [00000000/0000071c/0x10200040] volatile_write32
Chain 0: 0x7fc8dc84f200 [00000000/000009fc/0x10200040] virtio_mmio_init_queue
Chain 0: 0x7fc8dc837c40 [00000000/00001c00/0x10200040] printf
Chain 0: 0x7fc8dc838580 [00000000/00006914/0x10200040] _localeconv_r
Chain 0: 0x7fc8dc838700 [00000000/00001d80/0x10200040] _vfprintf_r
Chain 0: 0x7fc8dc8388c0 [00000000/00001d90/0x10200040] _vfprintf_r
Chain 0: 0x7fc8dc84f680 [00000000/0000210c/0x10200040] _vfprintf_r
Chain 0: 0x7fc8dc84f840 [00000000/00002510/0x10200040] _vfprintf_r
Chain 0: 0x7fc8dc84fac0 [00000000/00003440/0x10200040] _vfprintf_r
Chain 0: 0x7fc8dc844980 [00000000/00002130/0x10200040] _vfprintf_r
Chain 0: 0x7fc8dc844b40 [00000000/00002b50/0x10200040] _vfprintf_r
Chain 0: 0x7fc8dc83dd00 [00000000/0000218c/0x10200040] _vfprintf_r
Chain 0: 0x7fc8dc83f5c0 [00000000/00002bf8/0x10200040] _vfprintf_r
Chain 0: 0x7fc8dc83f740 [00000000/00002c00/0x10200040] _vfprintf_r
Chain 0: 0x7fc8dc83f8c0 [00000000/00008b44/0x10200040] __sprint_r
Chain 0: 0x7fc8dc822f80 [00000000/00006330/0x10200040] __sfvwrite_r
Chain 0: 0x7fc8dc82dd00 [00000000/00006424/0x10200040] __sfvwrite_r
Chain 0: 0x7fc8dc82e440 [00000000/00007280/0x10200040] memchr
Chain 0: 0x7fc8dc82f580 [00000000/00006694/0x10200040] __sfvwrite_r
Chain 0: 0x7fc8dc82ff00 [00000000/000074ac/0x10200040] memmove
Chain 0: 0x7fc8dc831580 [00000000/00006784/0x10200040] __sfvwrite_r
Chain 0: 0x7fc8dc82e440 [00000000/00007280/0x10200040] memchr
Chain 0: 0x7fc8dc82f580 [00000000/00006694/0x10200040] __sfvwrite_r
Chain 0: 0x7fc8dc82ff00 [00000000/000074ac/0x10200040] memmove
Chain 0: 0x7fc8dc831580 [00000000/00006784/0x10200040] __sfvwrite_r
Chain 0: 0x7fc8dc840b80 [00000000/00008b40/0x10200040] __sprint_r.part.0
Chain 0: 0x7fc8dc841180 [00000000/00002c08/0x10200040] _vfprintf_r
Chain 0: 0x7fc8dc841300 [00000000/000022f8/0x10200040] _vfprintf_r
Chain 0: 0x7fc8dc839880 [00000000/00001e54/0x10200040] _vfprintf_r
Chain 0: 0x7fc8dc8494c0 [00000000/0000272c/0x10200040] _vfprintf_r
Chain 0: 0x7fc8dc849640 [00000000/00001ee8/0x10200040] _vfprintf_r
Chain 0: 0x7fc8dc849840 [00000000/00002344/0x10200040] _vfprintf_r
Chain 0: 0x7fc8dc849bc0 [00000000/00001eec/0x10200040] _vfprintf_r
Chain 0: 0x7fc8dc843f80 [00000000/0000238c/0x10200040] _vfprintf_r
Chain 0: 0x7fc8dc844280 [00000000/0000267c/0x10200040] _vfprintf_r
Chain 0: 0x7fc8dc844640 [00000000/00003278/0x10200040] _vfprintf_r
Chain 0: 0x7fc8dc844740 [00000000/000023bc/0x10200040] _vfprintf_r
Chain 0: 0x7fc8dc844880 [00000000/0000283c/0x10200040] _vfprintf_r
Chain 0: 0x7fc8dc844980 [00000000/00002130/0x10200040] _vfprintf_r
Chain 0: 0x7fc8dc844b40 [00000000/00002b50/0x10200040] _vfprintf_r
Chain 0: 0x7fc8dc83dd00 [00000000/0000218c/0x10200040] _vfprintf_r
Chain 0: 0x7fc8dc849dc0 [00000000/0000298c/0x10200040] _vfprintf_r
Chain 0: 0x7fc8dc83e9c0 [00000000/00002274/0x10200040] _vfprintf_r
Chain 0: 0x7fc8dc83f5c0 [00000000/00002bf8/0x10200040] _vfprintf_r
Chain 0: 0x7fc8dc83f740 [00000000/00002c00/0x10200040] _vfprintf_r
Chain 0: 0x7fc8dc83f8c0 [00000000/00008b44/0x10200040] __sprint_r
Chain 0: 0x7fc8dc822f80 [00000000/00006330/0x10200040] __sfvwrite_r
Chain 0: 0x7fc8dc82dd00 [00000000/00006424/0x10200040] __sfvwrite_r
Chain 0: 0x7fc8dc82e440 [00000000/00007280/0x10200040] memchr
Chain 0: 0x7fc8dc82f580 [00000000/00006694/0x10200040] __sfvwrite_r
Chain 0: 0x7fc8dc82ff00 [00000000/000074ac/0x10200040] memmove
Chain 0: 0x7fc8dc831580 [00000000/00006784/0x10200040] __sfvwrite_r
Chain 0: 0x7fc8dc82e440 [00000000/00007280/0x10200040] memchr
Chain 0: 0x7fc8dc82f580 [00000000/00006694/0x10200040] __sfvwrite_r
Chain 0: 0x7fc8dc82ff00 [00000000/000074ac/0x10200040] memmove
Chain 0: 0x7fc8dc831580 [00000000/00006784/0x10200040] __sfvwrite_r
Chain 0: 0x7fc8dc82e440 [00000000/00007280/0x10200040] memchr
Chain 0: 0x7fc8dc82f580 [00000000/00006694/0x10200040] __sfvwrite_r
Chain 0: 0x7fc8dc82ff00 [00000000/000074ac/0x10200040] memmove
Chain 0: 0x7fc8dc831580 [00000000/00006784/0x10200040] __sfvwrite_r
Chain 0: 0x7fc8dc840b80 [00000000/00008b40/0x10200040] __sprint_r.part.0
Chain 0: 0x7fc8dc841180 [00000000/00002c08/0x10200040] _vfprintf_r
Chain 0: 0x7fc8dc841300 [00000000/000022f8/0x10200040] _vfprintf_r
Chain 0: 0x7fc8dc839880 [00000000/00001e54/0x10200040] _vfprintf_r
Chain 0: 0x7fc8dc8494c0 [00000000/0000272c/0x10200040] _vfprintf_r
Chain 0: 0x7fc8dc849640 [00000000/00001ee8/0x10200040] _vfprintf_r
Chain 0: 0x7fc8dc849840 [00000000/00002344/0x10200040] _vfprintf_r
Chain 0: 0x7fc8dc849bc0 [00000000/00001eec/0x10200040] _vfprintf_r
Chain 0: 0x7fc8dc843f80 [00000000/0000238c/0x10200040] _vfprintf_r
Chain 0: 0x7fc8dc844280 [00000000/0000267c/0x10200040] _vfprintf_r
Chain 0: 0x7fc8dc844640 [00000000/00003278/0x10200040] _vfprintf_r
Chain 0: 0x7fc8dc844740 [00000000/000023bc/0x10200040] _vfprintf_r
Chain 0: 0x7fc8dc844880 [00000000/0000283c/0x10200040] _vfprintf_r
Chain 0: 0x7fc8dc844980 [00000000/00002130/0x10200040] _vfprintf_r
Chain 0: 0x7fc8dc844b40 [00000000/00002b50/0x10200040] _vfprintf_r
Chain 0: 0x7fc8dc83dd00 [00000000/0000218c/0x10200040] _vfprintf_r
Chain 0: 0x7fc8dc849dc0 [00000000/0000298c/0x10200040] _vfprintf_r
Chain 0: 0x7fc8dc83e9c0 [00000000/00002274/0x10200040] _vfprintf_r
Chain 0: 0x7fc8dc83f5c0 [00000000/00002bf8/0x10200040] _vfprintf_r
Chain 0: 0x7fc8dc83f740 [00000000/00002c00/0x10200040] _vfprintf_r
Chain 0: 0x7fc8dc83f8c0 [00000000/00008b44/0x10200040] __sprint_r
Chain 0: 0x7fc8dc822f80 [00000000/00006330/0x10200040] __sfvwrite_r
Chain 0: 0x7fc8dc82dd00 [00000000/00006424/0x10200040] __sfvwrite_r
Chain 0: 0x7fc8dc82e440 [00000000/00007280/0x10200040] memchr
Chain 0: 0x7fc8dc82f580 [00000000/00006694/0x10200040] __sfvwrite_r
Chain 0: 0x7fc8dc82ff00 [00000000/000074ac/0x10200040] memmove
Chain 0: 0x7fc8dc831580 [00000000/00006784/0x10200040] __sfvwrite_r
Chain 0: 0x7fc8dc82e440 [00000000/00007280/0x10200040] memchr
Chain 0: 0x7fc8dc82f580 [00000000/00006694/0x10200040] __sfvwrite_r
Chain 0: 0x7fc8dc82ff00 [00000000/000074ac/0x10200040] memmove
Chain 0: 0x7fc8dc831580 [00000000/00006784/0x10200040] __sfvwrite_r
Chain 0: 0x7fc8dc82e440 [00000000/00007280/0x10200040] memchr
Chain 0: 0x7fc8dc82f580 [00000000/00006694/0x10200040] __sfvwrite_r
Chain 0: 0x7fc8dc82ff00 [00000000/000074ac/0x10200040] memmove
Chain 0: 0x7fc8dc831580 [00000000/00006784/0x10200040] __sfvwrite_r
Chain 0: 0x7fc8dc840b80 [00000000/00008b40/0x10200040] __sprint_r.part.0
Chain 0: 0x7fc8dc841180 [00000000/00002c08/0x10200040] _vfprintf_r
Chain 0: 0x7fc8dc841300 [00000000/000022f8/0x10200040] _vfprintf_r
Chain 0: 0x7fc8dc839880 [00000000/00001e54/0x10200040] _vfprintf_r
Chain 0: 0x7fc8dc8494c0 [00000000/0000272c/0x10200040] _vfprintf_r
Chain 0: 0x7fc8dc849640 [00000000/00001ee8/0x10200040] _vfprintf_r
Chain 0: 0x7fc8dc849840 [00000000/00002344/0x10200040] _vfprintf_r
Chain 0: 0x7fc8dc849bc0 [00000000/00001eec/0x10200040] _vfprintf_r
Chain 0: 0x7fc8dc843f80 [00000000/0000238c/0x10200040] _vfprintf_r
Chain 0: 0x7fc8dc844280 [00000000/0000267c/0x10200040] _vfprintf_r
Chain 0: 0x7fc8dc844640 [00000000/00003278/0x10200040] _vfprintf_r
Chain 0: 0x7fc8dc844740 [00000000/000023bc/0x10200040] _vfprintf_r
Chain 0: 0x7fc8dc844880 [00000000/0000283c/0x10200040] _vfprintf_r
Chain 0: 0x7fc8dc844980 [00000000/00002130/0x10200040] _vfprintf_r
Chain 0: 0x7fc8dc844b40 [00000000/00002b50/0x10200040] _vfprintf_r
Chain 0: 0x7fc8dc83dd00 [00000000/0000218c/0x10200040] _vfprintf_r
Chain 0: 0x7fc8dc849dc0 [00000000/0000298c/0x10200040] _vfprintf_r
Chain 0: 0x7fc8dc83e9c0 [00000000/00002274/0x10200040] _vfprintf_r
Chain 0: 0x7fc8dc83f5c0 [00000000/00002bf8/0x10200040] _vfprintf_r
Chain 0: 0x7fc8dc83f740 [00000000/00002c00/0x10200040] _vfprintf_r
Chain 0: 0x7fc8dc83f8c0 [00000000/00008b44/0x10200040] __sprint_r
Chain 0: 0x7fc8dc822f80 [00000000/00006330/0x10200040] __sfvwrite_r
Chain 0: 0x7fc8dc82dd00 [00000000/00006424/0x10200040] __sfvwrite_r
Chain 0: 0x7fc8dc82e440 [00000000/00007280/0x10200040] memchr
Chain 0: 0x7fc8dc82f580 [00000000/00006694/0x10200040] __sfvwrite_r
Chain 0: 0x7fc8dc82ff00 [00000000/000074ac/0x10200040] memmove
Chain 0: 0x7fc8dc831580 [00000000/00006784/0x10200040] __sfvwrite_r
Chain 0: 0x7fc8dc82e440 [00000000/00007280/0x10200040] memchr
Chain 0: 0x7fc8dc82f580 [00000000/00006694/0x10200040] __sfvwrite_r
Chain 0: 0x7fc8dc82ff00 [00000000/000074ac/0x10200040] memmove
Chain 0: 0x7fc8dc831580 [00000000/00006784/0x10200040] __sfvwrite_r
Chain 0: 0x7fc8dc82e440 [00000000/00007280/0x10200040] memchr
Chain 0: 0x7fc8dc82f580 [00000000/00006694/0x10200040] __sfvwrite_r
Chain 0: 0x7fc8dc82ff00 [00000000/000074ac/0x10200040] memmove
Chain 0: 0x7fc8dc831580 [00000000/00006784/0x10200040] __sfvwrite_r
Chain 0: 0x7fc8dc840b80 [00000000/00008b40/0x10200040] __sprint_r.part.0
Chain 0: 0x7fc8dc841180 [00000000/00002c08/0x10200040] _vfprintf_r
Chain 0: 0x7fc8dc841300 [00000000/000022f8/0x10200040] _vfprintf_r
Chain 0: 0x7fc8dc839880 [00000000/00001e54/0x10200040] _vfprintf_r
Chain 0: 0x7fc8dc842000 [00000000/000020d4/0x10200040] _vfprintf_r
Chain 0: 0x7fc8dc83f8c0 [00000000/00008b44/0x10200040] __sprint_r
Chain 0: 0x7fc8dc822f80 [00000000/00006330/0x10200040] __sfvwrite_r
Chain 0: 0x7fc8dc82dd00 [00000000/00006424/0x10200040] __sfvwrite_r
Chain 0: 0x7fc8dc82e440 [00000000/00007280/0x10200040] memchr
Chain 0: 0x7fc8dc82f580 [00000000/00006694/0x10200040] __sfvwrite_r
Chain 0: 0x7fc8dc82ff00 [00000000/000074ac/0x10200040] memmove
Chain 0: 0x7fc8dc831580 [00000000/00006784/0x10200040] __sfvwrite_r
Chain 0: 0x7fc8dc832940 [00000000/00005b7c/0x10200040] _fflush_r
Chain 0: 0x7fc8dc833b40 [00000000/000089f4/0x10200040] __swrite
Chain 0: 0x7fc8dc834140 [00000000/00009e70/0x10200040] _write_r
Chain 0: 0x7fc8dc834480 [00000000/0000b018/0x10200040] _write
Chain 0: 0x7fc8dc816380 [00000000/0000ad4c/0x10200040] findslot
Chain 0: 0x7fc8dc834740 [00000000/0000b02c/0x10200040] _write
Trace 0: 0x7fc8dc834b40 [00000000/0000b054/0x10200040] _write
Chain 0: 0x7fc8dc835340 [00000000/00009e98/0x10200040] _write_r
Chain 0: 0x7fc8dc835740 [00000000/00008a30/0x10200040] __swrite
Chain 0: 0x7fc8dc835a40 [00000000/00005ac8/0x10200040] __sflush_r
Chain 0: 0x7fc8dc836080 [00000000/00006764/0x10200040] __sfvwrite_r
Chain 0: 0x7fc8dc840b80 [00000000/00008b40/0x10200040] __sprint_r.part.0
Chain 0: 0x7fc8dc842280 [00000000/000020ec/0x10200040] _vfprintf_r
Chain 0: 0x7fc8dc842900 [00000000/00001c2c/0x10200040] printf
Chain 0: 0x7fc8dc84fe80 [00000000/00000a34/0x10200040] virtio_mmio_init_queue
----------------
IN: virtio_serial_init
0x00000580:  e51b3018  ldr      r3, [fp, #-0x18]
0x00000584:  e2830b6e  add      r0, r3, #0x1b800
0x00000588:  e280000c  add      r0, r0, #0xc
0x0000058c:  e51b3018  ldr      r3, [fp, #-0x18]
0x00000590:  e2831b6e  add      r1, r3, #0x1b800
0x00000594:  e2811080  add      r1, r1, #0x80
0x00000598:  e3a03b01  mov      r3, #0x400
0x0000059c:  e3a02003  mov      r2, #3
0x000005a0:  eb0000e9  bl       #0x94c

Trace 0: 0x7fc8dc850480 [00000000/00000580/0x10200040] virtio_serial_init
Chain 0: 0x7fc8dc84e3c0 [00000000/0000094c/0x10200040] virtio_mmio_init_queue
Chain 0: 0x7fc8dc84ac80 [00000000/0000071c/0x10200040] volatile_write32
Chain 0: 0x7fc8dc84e880 [00000000/00000988/0x10200040] virtio_mmio_init_queue
Chain 0: 0x7fc8dc842f40 [00000000/000006f4/0x10200040] volatile_read32
Chain 0: 0x7fc8dc84ea00 [00000000/00000998/0x10200040] virtio_mmio_init_queue
Chain 0: 0x7fc8dc84ac80 [00000000/0000071c/0x10200040] volatile_write32
Chain 0: 0x7fc8dc84ee40 [00000000/000009c8/0x10200040] virtio_mmio_init_queue
Chain 0: 0x7fc8dc84ac80 [00000000/0000071c/0x10200040] volatile_write32
Chain 0: 0x7fc8dc84efc0 [00000000/000009dc/0x10200040] virtio_mmio_init_queue
Chain 0: 0x7fc8dc84ac80 [00000000/0000071c/0x10200040] volatile_write32
Chain 0: 0x7fc8dc84f200 [00000000/000009fc/0x10200040] virtio_mmio_init_queue
Chain 0: 0x7fc8dc837c40 [00000000/00001c00/0x10200040] printf
Chain 0: 0x7fc8dc838580 [00000000/00006914/0x10200040] _localeconv_r
Chain 0: 0x7fc8dc838700 [00000000/00001d80/0x10200040] _vfprintf_r
Chain 0: 0x7fc8dc8388c0 [00000000/00001d90/0x10200040] _vfprintf_r
Chain 0: 0x7fc8dc84f680 [00000000/0000210c/0x10200040] _vfprintf_r
Chain 0: 0x7fc8dc84f840 [00000000/00002510/0x10200040] _vfprintf_r
Chain 0: 0x7fc8dc84fac0 [00000000/00003440/0x10200040] _vfprintf_r
Chain 0: 0x7fc8dc844980 [00000000/00002130/0x10200040] _vfprintf_r
Chain 0: 0x7fc8dc844b40 [00000000/00002b50/0x10200040] _vfprintf_r
Chain 0: 0x7fc8dc83dd00 [00000000/0000218c/0x10200040] _vfprintf_r
Chain 0: 0x7fc8dc83f5c0 [00000000/00002bf8/0x10200040] _vfprintf_r
Chain 0: 0x7fc8dc83f740 [00000000/00002c00/0x10200040] _vfprintf_r
Chain 0: 0x7fc8dc83f8c0 [00000000/00008b44/0x10200040] __sprint_r
Chain 0: 0x7fc8dc822f80 [00000000/00006330/0x10200040] __sfvwrite_r
Chain 0: 0x7fc8dc82dd00 [00000000/00006424/0x10200040] __sfvwrite_r
Chain 0: 0x7fc8dc82e440 [00000000/00007280/0x10200040] memchr
Chain 0: 0x7fc8dc82f580 [00000000/00006694/0x10200040] __sfvwrite_r
Chain 0: 0x7fc8dc82ff00 [00000000/000074ac/0x10200040] memmove
Chain 0: 0x7fc8dc831580 [00000000/00006784/0x10200040] __sfvwrite_r
Chain 0: 0x7fc8dc82e440 [00000000/00007280/0x10200040] memchr
Chain 0: 0x7fc8dc82f580 [00000000/00006694/0x10200040] __sfvwrite_r
Chain 0: 0x7fc8dc82ff00 [00000000/000074ac/0x10200040] memmove
Chain 0: 0x7fc8dc831580 [00000000/00006784/0x10200040] __sfvwrite_r
Chain 0: 0x7fc8dc840b80 [00000000/00008b40/0x10200040] __sprint_r.part.0
Chain 0: 0x7fc8dc841180 [00000000/00002c08/0x10200040] _vfprintf_r
Chain 0: 0x7fc8dc841300 [00000000/000022f8/0x10200040] _vfprintf_r
Chain 0: 0x7fc8dc839880 [00000000/00001e54/0x10200040] _vfprintf_r
Chain 0: 0x7fc8dc8494c0 [00000000/0000272c/0x10200040] _vfprintf_r
Chain 0: 0x7fc8dc849640 [00000000/00001ee8/0x10200040] _vfprintf_r
Chain 0: 0x7fc8dc849840 [00000000/00002344/0x10200040] _vfprintf_r
Chain 0: 0x7fc8dc849bc0 [00000000/00001eec/0x10200040] _vfprintf_r
Chain 0: 0x7fc8dc843f80 [00000000/0000238c/0x10200040] _vfprintf_r
Chain 0: 0x7fc8dc844280 [00000000/0000267c/0x10200040] _vfprintf_r
Chain 0: 0x7fc8dc844640 [00000000/00003278/0x10200040] _vfprintf_r
Chain 0: 0x7fc8dc844740 [00000000/000023bc/0x10200040] _vfprintf_r
Chain 0: 0x7fc8dc844880 [00000000/0000283c/0x10200040] _vfprintf_r
Chain 0: 0x7fc8dc844980 [00000000/00002130/0x10200040] _vfprintf_r
Chain 0: 0x7fc8dc844b40 [00000000/00002b50/0x10200040] _vfprintf_r
Chain 0: 0x7fc8dc83dd00 [00000000/0000218c/0x10200040] _vfprintf_r
Chain 0: 0x7fc8dc849dc0 [00000000/0000298c/0x10200040] _vfprintf_r
Chain 0: 0x7fc8dc83e9c0 [00000000/00002274/0x10200040] _vfprintf_r
Chain 0: 0x7fc8dc83f5c0 [00000000/00002bf8/0x10200040] _vfprintf_r
Chain 0: 0x7fc8dc83f740 [00000000/00002c00/0x10200040] _vfprintf_r
Chain 0: 0x7fc8dc83f8c0 [00000000/00008b44/0x10200040] __sprint_r
Chain 0: 0x7fc8dc822f80 [00000000/00006330/0x10200040] __sfvwrite_r
Chain 0: 0x7fc8dc82dd00 [00000000/00006424/0x10200040] __sfvwrite_r
Chain 0: 0x7fc8dc82e440 [00000000/00007280/0x10200040] memchr
Chain 0: 0x7fc8dc82f580 [00000000/00006694/0x10200040] __sfvwrite_r
Chain 0: 0x7fc8dc82ff00 [00000000/000074ac/0x10200040] memmove
Chain 0: 0x7fc8dc831580 [00000000/00006784/0x10200040] __sfvwrite_r
Chain 0: 0x7fc8dc82e440 [00000000/00007280/0x10200040] memchr
Chain 0: 0x7fc8dc82f580 [00000000/00006694/0x10200040] __sfvwrite_r
Chain 0: 0x7fc8dc82ff00 [00000000/000074ac/0x10200040] memmove
Chain 0: 0x7fc8dc831580 [00000000/00006784/0x10200040] __sfvwrite_r
Chain 0: 0x7fc8dc82e440 [00000000/00007280/0x10200040] memchr
Chain 0: 0x7fc8dc82f580 [00000000/00006694/0x10200040] __sfvwrite_r
Chain 0: 0x7fc8dc82ff00 [00000000/000074ac/0x10200040] memmove
Chain 0: 0x7fc8dc831580 [00000000/00006784/0x10200040] __sfvwrite_r
Chain 0: 0x7fc8dc840b80 [00000000/00008b40/0x10200040] __sprint_r.part.0
Chain 0: 0x7fc8dc841180 [00000000/00002c08/0x10200040] _vfprintf_r
Chain 0: 0x7fc8dc841300 [00000000/000022f8/0x10200040] _vfprintf_r
Chain 0: 0x7fc8dc839880 [00000000/00001e54/0x10200040] _vfprintf_r
Chain 0: 0x7fc8dc8494c0 [00000000/0000272c/0x10200040] _vfprintf_r
Chain 0: 0x7fc8dc849640 [00000000/00001ee8/0x10200040] _vfprintf_r
Chain 0: 0x7fc8dc849840 [00000000/00002344/0x10200040] _vfprintf_r
Chain 0: 0x7fc8dc849bc0 [00000000/00001eec/0x10200040] _vfprintf_r
Chain 0: 0x7fc8dc843f80 [00000000/0000238c/0x10200040] _vfprintf_r
Chain 0: 0x7fc8dc844280 [00000000/0000267c/0x10200040] _vfprintf_r
Chain 0: 0x7fc8dc844640 [00000000/00003278/0x10200040] _vfprintf_r
Chain 0: 0x7fc8dc844740 [00000000/000023bc/0x10200040] _vfprintf_r
Chain 0: 0x7fc8dc844880 [00000000/0000283c/0x10200040] _vfprintf_r
Chain 0: 0x7fc8dc844980 [00000000/00002130/0x10200040] _vfprintf_r
Chain 0: 0x7fc8dc844b40 [00000000/00002b50/0x10200040] _vfprintf_r
Chain 0: 0x7fc8dc83dd00 [00000000/0000218c/0x10200040] _vfprintf_r
Chain 0: 0x7fc8dc849dc0 [00000000/0000298c/0x10200040] _vfprintf_r
Chain 0: 0x7fc8dc83e9c0 [00000000/00002274/0x10200040] _vfprintf_r
Chain 0: 0x7fc8dc83f5c0 [00000000/00002bf8/0x10200040] _vfprintf_r
Chain 0: 0x7fc8dc83f740 [00000000/00002c00/0x10200040] _vfprintf_r
Chain 0: 0x7fc8dc83f8c0 [00000000/00008b44/0x10200040] __sprint_r
Chain 0: 0x7fc8dc822f80 [00000000/00006330/0x10200040] __sfvwrite_r
Chain 0: 0x7fc8dc82dd00 [00000000/00006424/0x10200040] __sfvwrite_r
Chain 0: 0x7fc8dc82e440 [00000000/00007280/0x10200040] memchr
Chain 0: 0x7fc8dc82f580 [00000000/00006694/0x10200040] __sfvwrite_r
Chain 0: 0x7fc8dc82ff00 [00000000/000074ac/0x10200040] memmove
Chain 0: 0x7fc8dc831580 [00000000/00006784/0x10200040] __sfvwrite_r
Chain 0: 0x7fc8dc82e440 [00000000/00007280/0x10200040] memchr
Chain 0: 0x7fc8dc82f580 [00000000/00006694/0x10200040] __sfvwrite_r
Chain 0: 0x7fc8dc82ff00 [00000000/000074ac/0x10200040] memmove
Chain 0: 0x7fc8dc831580 [00000000/00006784/0x10200040] __sfvwrite_r
Chain 0: 0x7fc8dc82e440 [00000000/00007280/0x10200040] memchr
Chain 0: 0x7fc8dc82f580 [00000000/00006694/0x10200040] __sfvwrite_r
Chain 0: 0x7fc8dc82ff00 [00000000/000074ac/0x10200040] memmove
Chain 0: 0x7fc8dc831580 [00000000/00006784/0x10200040] __sfvwrite_r
Chain 0: 0x7fc8dc840b80 [00000000/00008b40/0x10200040] __sprint_r.part.0
Chain 0: 0x7fc8dc841180 [00000000/00002c08/0x10200040] _vfprintf_r
Chain 0: 0x7fc8dc841300 [00000000/000022f8/0x10200040] _vfprintf_r
Chain 0: 0x7fc8dc839880 [00000000/00001e54/0x10200040] _vfprintf_r
Chain 0: 0x7fc8dc8494c0 [00000000/0000272c/0x10200040] _vfprintf_r
Chain 0: 0x7fc8dc849640 [00000000/00001ee8/0x10200040] _vfprintf_r
Chain 0: 0x7fc8dc849840 [00000000/00002344/0x10200040] _vfprintf_r
Chain 0: 0x7fc8dc849bc0 [00000000/00001eec/0x10200040] _vfprintf_r
Chain 0: 0x7fc8dc843f80 [00000000/0000238c/0x10200040] _vfprintf_r
Chain 0: 0x7fc8dc844280 [00000000/0000267c/0x10200040] _vfprintf_r
Chain 0: 0x7fc8dc844640 [00000000/00003278/0x10200040] _vfprintf_r
Chain 0: 0x7fc8dc844740 [00000000/000023bc/0x10200040] _vfprintf_r
Chain 0: 0x7fc8dc844880 [00000000/0000283c/0x10200040] _vfprintf_r
Chain 0: 0x7fc8dc844980 [00000000/00002130/0x10200040] _vfprintf_r
Chain 0: 0x7fc8dc844b40 [00000000/00002b50/0x10200040] _vfprintf_r
Chain 0: 0x7fc8dc83dd00 [00000000/0000218c/0x10200040] _vfprintf_r
Chain 0: 0x7fc8dc849dc0 [00000000/0000298c/0x10200040] _vfprintf_r
Chain 0: 0x7fc8dc83e9c0 [00000000/00002274/0x10200040] _vfprintf_r
Chain 0: 0x7fc8dc83f5c0 [00000000/00002bf8/0x10200040] _vfprintf_r
Chain 0: 0x7fc8dc83f740 [00000000/00002c00/0x10200040] _vfprintf_r
Chain 0: 0x7fc8dc83f8c0 [00000000/00008b44/0x10200040] __sprint_r
Chain 0: 0x7fc8dc822f80 [00000000/00006330/0x10200040] __sfvwrite_r
Chain 0: 0x7fc8dc82dd00 [00000000/00006424/0x10200040] __sfvwrite_r
Chain 0: 0x7fc8dc82e440 [00000000/00007280/0x10200040] memchr
Chain 0: 0x7fc8dc82f580 [00000000/00006694/0x10200040] __sfvwrite_r
Chain 0: 0x7fc8dc82ff00 [00000000/000074ac/0x10200040] memmove
Chain 0: 0x7fc8dc831580 [00000000/00006784/0x10200040] __sfvwrite_r
Chain 0: 0x7fc8dc82e440 [00000000/00007280/0x10200040] memchr
Chain 0: 0x7fc8dc82f580 [00000000/00006694/0x10200040] __sfvwrite_r
Chain 0: 0x7fc8dc82ff00 [00000000/000074ac/0x10200040] memmove
Chain 0: 0x7fc8dc831580 [00000000/00006784/0x10200040] __sfvwrite_r
Chain 0: 0x7fc8dc82e440 [00000000/00007280/0x10200040] memchr
Chain 0: 0x7fc8dc82f580 [00000000/00006694/0x10200040] __sfvwrite_r
Chain 0: 0x7fc8dc82ff00 [00000000/000074ac/0x10200040] memmove
Chain 0: 0x7fc8dc831580 [00000000/00006784/0x10200040] __sfvwrite_r
Chain 0: 0x7fc8dc840b80 [00000000/00008b40/0x10200040] __sprint_r.part.0
Chain 0: 0x7fc8dc841180 [00000000/00002c08/0x10200040] _vfprintf_r
Chain 0: 0x7fc8dc841300 [00000000/000022f8/0x10200040] _vfprintf_r
Chain 0: 0x7fc8dc839880 [00000000/00001e54/0x10200040] _vfprintf_r
Chain 0: 0x7fc8dc842000 [00000000/000020d4/0x10200040] _vfprintf_r
Chain 0: 0x7fc8dc83f8c0 [00000000/00008b44/0x10200040] __sprint_r
Chain 0: 0x7fc8dc822f80 [00000000/00006330/0x10200040] __sfvwrite_r
Chain 0: 0x7fc8dc82dd00 [00000000/00006424/0x10200040] __sfvwrite_r
Chain 0: 0x7fc8dc82e440 [00000000/00007280/0x10200040] memchr
Chain 0: 0x7fc8dc82f580 [00000000/00006694/0x10200040] __sfvwrite_r
Chain 0: 0x7fc8dc82ff00 [00000000/000074ac/0x10200040] memmove
Chain 0: 0x7fc8dc831580 [00000000/00006784/0x10200040] __sfvwrite_r
Chain 0: 0x7fc8dc832940 [00000000/00005b7c/0x10200040] _fflush_r
Chain 0: 0x7fc8dc833b40 [00000000/000089f4/0x10200040] __swrite
Chain 0: 0x7fc8dc834140 [00000000/00009e70/0x10200040] _write_r
Chain 0: 0x7fc8dc834480 [00000000/0000b018/0x10200040] _write
Chain 0: 0x7fc8dc816380 [00000000/0000ad4c/0x10200040] findslot
Chain 0: 0x7fc8dc834740 [00000000/0000b02c/0x10200040] _write
Trace 0: 0x7fc8dc834b40 [00000000/0000b054/0x10200040] _write
Chain 0: 0x7fc8dc835340 [00000000/00009e98/0x10200040] _write_r
Chain 0: 0x7fc8dc835740 [00000000/00008a30/0x10200040] __swrite
Chain 0: 0x7fc8dc835a40 [00000000/00005ac8/0x10200040] __sflush_r
Chain 0: 0x7fc8dc836080 [00000000/00006764/0x10200040] __sfvwrite_r
Chain 0: 0x7fc8dc840b80 [00000000/00008b40/0x10200040] __sprint_r.part.0
Chain 0: 0x7fc8dc842280 [00000000/000020ec/0x10200040] _vfprintf_r
Chain 0: 0x7fc8dc842900 [00000000/00001c2c/0x10200040] printf
Chain 0: 0x7fc8dc84fe80 [00000000/00000a34/0x10200040] virtio_mmio_init_queue
----------------
IN: virtio_serial_init
0x000005a4:  e59f0090  ldr      r0, [pc, #0x90]
0x000005a8:  eb0005cf  bl       #0x1cec

Trace 0: 0x7fc8dc850680 [00000000/000005a4/0x10200040] virtio_serial_init
Chain 0: 0x7fc8dc822380 [00000000/00001cec/0x10200040] puts
Chain 0: 0x7fc8dc822780 [00000000/00001c58/0x10200040] _puts_r
Chain 0: 0x7fc8dc822f80 [00000000/00006330/0x10200040] __sfvwrite_r
Chain 0: 0x7fc8dc82dd00 [00000000/00006424/0x10200040] __sfvwrite_r
Chain 0: 0x7fc8dc82e440 [00000000/00007280/0x10200040] memchr
Chain 0: 0x7fc8dc82f580 [00000000/00006694/0x10200040] __sfvwrite_r
Chain 0: 0x7fc8dc82ff00 [00000000/000074ac/0x10200040] memmove
----------------
IN: memmove
0x00007540:  e513e010  ldr      lr, [r3, #-0x10]
0x00007544:  e50ce010  str      lr, [ip, #-0x10]
0x00007548:  e513e00c  ldr      lr, [r3, #-0xc]
0x0000754c:  e50ce00c  str      lr, [ip, #-0xc]
0x00007550:  e513e008  ldr      lr, [r3, #-8]
0x00007554:  e50ce008  str      lr, [ip, #-8]
0x00007558:  e2833010  add      r3, r3, #0x10
0x0000755c:  e513e014  ldr      lr, [r3, #-0x14]
0x00007560:  e1530004  cmp      r3, r4
0x00007564:  e50ce004  str      lr, [ip, #-4]
0x00007568:  e28cc010  add      ip, ip, #0x10
0x0000756c:  1afffff3  bne      #0x7540

Linking TBs 0x7fc8dc8304c0 [00007524] index 0 -> 0x7fc8dc850800 [00007540]
Trace 0: 0x7fc8dc850800 [00000000/00007540/0x10200040] memmove
Linking TBs 0x7fc8dc850800 [00007540] index 1 -> 0x7fc8dc830a80 [00007570]
Trace 0: 0x7fc8dc830a80 [00000000/00007570/0x10200040] memmove
Chain 0: 0x7fc8dc831580 [00000000/00006784/0x10200040] __sfvwrite_r
Chain 0: 0x7fc8dc82e440 [00000000/00007280/0x10200040] memchr
Chain 0: 0x7fc8dc82f580 [00000000/00006694/0x10200040] __sfvwrite_r
Chain 0: 0x7fc8dc82ff00 [00000000/000074ac/0x10200040] memmove
Chain 0: 0x7fc8dc831580 [00000000/00006784/0x10200040] __sfvwrite_r
Chain 0: 0x7fc8dc832940 [00000000/00005b7c/0x10200040] _fflush_r
Chain 0: 0x7fc8dc833b40 [00000000/000089f4/0x10200040] __swrite
Chain 0: 0x7fc8dc834140 [00000000/00009e70/0x10200040] _write_r
Chain 0: 0x7fc8dc834480 [00000000/0000b018/0x10200040] _write
Chain 0: 0x7fc8dc816380 [00000000/0000ad4c/0x10200040] findslot
Chain 0: 0x7fc8dc834740 [00000000/0000b02c/0x10200040] _write
Trace 0: 0x7fc8dc834b40 [00000000/0000b054/0x10200040] _write
Chain 0: 0x7fc8dc835340 [00000000/00009e98/0x10200040] _write_r
Chain 0: 0x7fc8dc835740 [00000000/00008a30/0x10200040] __swrite
Chain 0: 0x7fc8dc835a40 [00000000/00005ac8/0x10200040] __sflush_r
Chain 0: 0x7fc8dc836080 [00000000/00006764/0x10200040] __sfvwrite_r
Chain 0: 0x7fc8dc836600 [00000000/00001cc4/0x10200040] _puts_r
----------------
IN: virtio_serial_init
0x000005ac:  e51b3018  ldr      r3, [fp, #-0x18]
0x000005b0:  e2833b6e  add      r3, r3, #0x1b800
0x000005b4:  e283300c  add      r3, r3, #0xc
0x000005b8:  e1a00003  mov      r0, r3
0x000005bc:  eb000122  bl       #0xa4c

Trace 0: 0x7fc8dc850c40 [00000000/000005ac/0x10200040] virtio_serial_init
----------------
IN: virtio_mmio_driver_ok
0x00000a4c:  e92d4800  push     {fp, lr}
0x00000a50:  e28db004  add      fp, sp, #4
0x00000a54:  e24dd010  sub      sp, sp, #0x10
0x00000a58:  e50b0010  str      r0, [fp, #-0x10]
0x00000a5c:  e51b3010  ldr      r3, [fp, #-0x10]
0x00000a60:  e2833070  add      r3, r3, #0x70
0x00000a64:  e1a00003  mov      r0, r3
0x00000a68:  ebffff21  bl       #0x6f4

Trace 0: 0x7fc8dc850dc0 [00000000/00000a4c/0x10200040] virtio_mmio_driver_ok
Chain 0: 0x7fc8dc842f40 [00000000/000006f4/0x10200040] volatile_read32
----------------
IN: virtio_mmio_driver_ok
0x00000a6c:  e50b0008  str      r0, [fp, #-8]
0x00000a70:  e51b3008  ldr      r3, [fp, #-8]
0x00000a74:  e3833004  orr      r3, r3, #4
0x00000a78:  e50b3008  str      r3, [fp, #-8]
0x00000a7c:  e51b3010  ldr      r3, [fp, #-0x10]
0x00000a80:  e2833070  add      r3, r3, #0x70
0x00000a84:  e51b1008  ldr      r1, [fp, #-8]
0x00000a88:  e1a00003  mov      r0, r3
0x00000a8c:  ebffff22  bl       #0x71c

Trace 0: 0x7fc8dc851040 [00000000/00000a6c/0x10200040] virtio_mmio_driver_ok
Chain 0: 0x7fc8dc84ac80 [00000000/0000071c/0x10200040] volatile_write32
----------------
IN: virtio_mmio_driver_ok
0x00000a90:  e3a03000  mov      r3, #0
0x00000a94:  e1a00003  mov      r0, r3
0x00000a98:  e24bd004  sub      sp, fp, #4
0x00000a9c:  e8bd4800  pop      {fp, lr}
0x00000aa0:  e12fff1e  bx       lr

Trace 0: 0x7fc8dc851340 [00000000/00000a90/0x10200040] virtio_mmio_driver_ok
----------------
IN: virtio_serial_init
0x000005c0:  e59f0078  ldr      r0, [pc, #0x78]
0x000005c4:  eb0005c8  bl       #0x1cec

Trace 0: 0x7fc8dc851540 [00000000/000005c0/0x10200040] virtio_serial_init
Chain 0: 0x7fc8dc822380 [00000000/00001cec/0x10200040] puts
Chain 0: 0x7fc8dc822780 [00000000/00001c58/0x10200040] _puts_r
Chain 0: 0x7fc8dc822f80 [00000000/00006330/0x10200040] __sfvwrite_r
Chain 0: 0x7fc8dc82dd00 [00000000/00006424/0x10200040] __sfvwrite_r
Chain 0: 0x7fc8dc82e440 [00000000/00007280/0x10200040] memchr
Chain 0: 0x7fc8dc82f580 [00000000/00006694/0x10200040] __sfvwrite_r
Chain 0: 0x7fc8dc82ff00 [00000000/000074ac/0x10200040] memmove
Chain 0: 0x7fc8dc831580 [00000000/00006784/0x10200040] __sfvwrite_r
Chain 0: 0x7fc8dc82e440 [00000000/00007280/0x10200040] memchr
Chain 0: 0x7fc8dc82f580 [00000000/00006694/0x10200040] __sfvwrite_r
Chain 0: 0x7fc8dc82ff00 [00000000/000074ac/0x10200040] memmove
Chain 0: 0x7fc8dc831580 [00000000/00006784/0x10200040] __sfvwrite_r
Chain 0: 0x7fc8dc832940 [00000000/00005b7c/0x10200040] _fflush_r
Chain 0: 0x7fc8dc833b40 [00000000/000089f4/0x10200040] __swrite
Chain 0: 0x7fc8dc834140 [00000000/00009e70/0x10200040] _write_r
Chain 0: 0x7fc8dc834480 [00000000/0000b018/0x10200040] _write
Chain 0: 0x7fc8dc816380 [00000000/0000ad4c/0x10200040] findslot
Chain 0: 0x7fc8dc834740 [00000000/0000b02c/0x10200040] _write
Trace 0: 0x7fc8dc834b40 [00000000/0000b054/0x10200040] _write
Chain 0: 0x7fc8dc835340 [00000000/00009e98/0x10200040] _write_r
Chain 0: 0x7fc8dc835740 [00000000/00008a30/0x10200040] __swrite
Chain 0: 0x7fc8dc835a40 [00000000/00005ac8/0x10200040] __sflush_r
Chain 0: 0x7fc8dc836080 [00000000/00006764/0x10200040] __sfvwrite_r
Chain 0: 0x7fc8dc836600 [00000000/00001cc4/0x10200040] _puts_r
----------------
IN: virtio_serial_init
0x000005c8:  e3a03001  mov      r3, #1
0x000005cc:  e50b3010  str      r3, [fp, #-0x10]
0x000005d0:  e3a03006  mov      r3, #6
0x000005d4:  e14b30bc  strh     r3, [fp, #-0xc]
0x000005d8:  e3a03001  mov      r3, #1
0x000005dc:  e14b30ba  strh     r3, [fp, #-0xa]
0x000005e0:  e51b3018  ldr      r3, [fp, #-0x18]
0x000005e4:  e2830b6e  add      r0, r3, #0x1b800
0x000005e8:  e280000c  add      r0, r0, #0xc
0x000005ec:  e51b3018  ldr      r3, [fp, #-0x18]
0x000005f0:  e2831b6e  add      r1, r3, #0x1b800
0x000005f4:  e2811080  add      r1, r1, #0x80
0x000005f8:  e24b2010  sub      r2, fp, #0x10
0x000005fc:  e3a03008  mov      r3, #8
0x00000600:  eb000127  bl       #0xaa4

Trace 0: 0x7fc8dc8516c0 [00000000/000005c8/0x10200040] virtio_serial_init
----------------
IN: virtio_mmio_write_one
0x00000aa4:  e92d4800  push     {fp, lr}
0x00000aa8:  e28db004  add      fp, sp, #4
0x00000aac:  e24dd028  sub      sp, sp, #0x28
0x00000ab0:  e50b0020  str      r0, [fp, #-0x20]
0x00000ab4:  e50b1024  str      r1, [fp, #-0x24]
0x00000ab8:  e50b2028  str      r2, [fp, #-0x28]
0x00000abc:  e50b302c  str      r3, [fp, #-0x2c]
0x00000ac0:  e51b3024  ldr      r3, [fp, #-0x24]
0x00000ac4:  e5933014  ldr      r3, [r3, #0x14]
0x00000ac8:  e5d32002  ldrb     r2, [r3, #2]
0x00000acc:  e20220ff  and      r2, r2, #0xff
0x00000ad0:  e5d33003  ldrb     r3, [r3, #3]
0x00000ad4:  e20330ff  and      r3, r3, #0xff
0x00000ad8:  e1a03403  lsl      r3, r3, #8
0x00000adc:  e1833002  orr      r3, r3, r2
0x00000ae0:  e1a03803  lsl      r3, r3, #0x10
0x00000ae4:  e1a03823  lsr      r3, r3, #0x10
0x00000ae8:  e1a02003  mov      r2, r3
0x00000aec:  e51b3024  ldr      r3, [fp, #-0x24]
0x00000af0:  e5933000  ldr      r3, [r3]
0x00000af4:  e1a01003  mov      r1, r3
0x00000af8:  e1a00002  mov      r0, r2
0x00000afc:  eb002cfc  bl       #0xbef4

Trace 0: 0x7fc8dc851a00 [00000000/00000aa4/0x10200040] virtio_mmio_write_one
----------------
IN: __aeabi_uidivmod
0x0000bef4:  e3510000  cmp      r1, #0
0x0000bef8:  0afffffa  beq      #0xbee8

Trace 0: 0x7fc8dc851f40 [00000000/0000bef4/0x10200040] __aeabi_uidivmod
----------------
IN: __aeabi_uidivmod
0x0000befc:  e92d4003  push     {r0, r1, lr}
0x0000bf00:  ebffffbe  bl       #0xbe00

Linking TBs 0x7fc8dc851f40 [0000bef4] index 1 -> 0x7fc8dc852080 [0000befc]
Trace 0: 0x7fc8dc852080 [00000000/0000befc/0x10200040] __aeabi_uidivmod
----------------
IN: __udivsi3
0x0000be00:  e2512001  subs     r2, r1, #1
0x0000be04:  012fff1e  bxeq     lr

Linking TBs 0x7fc8dc852080 [0000befc] index 0 -> 0x7fc8dc8522c0 [0000be00]
Trace 0: 0x7fc8dc8522c0 [00000000/0000be00/0x10200040] __udivsi3
----------------
IN: __udivsi3
0x0000be08:  3a000036  blo      #0xbee8

Linking TBs 0x7fc8dc8522c0 [0000be00] index 1 -> 0x7fc8dc852440 [0000be08]
Trace 0: 0x7fc8dc852440 [00000000/0000be08/0x10200040] __udivsi3
----------------
IN: __udivsi3
0x0000be0c:  e1500001  cmp      r0, r1
0x0000be10:  9a000022  bls      #0xbea0

Linking TBs 0x7fc8dc852440 [0000be08] index 1 -> 0x7fc8dc852580 [0000be0c]
Trace 0: 0x7fc8dc852580 [00000000/0000be0c/0x10200040] __udivsi3
----------------
IN: __udivsi3
0x0000bea0:  03a00001  moveq    r0, #1
0x0000bea4:  13a00000  movne    r0, #0
0x0000bea8:  e12fff1e  bx       lr

Linking TBs 0x7fc8dc852580 [0000be0c] index 0 -> 0x7fc8dc852700 [0000bea0]
Trace 0: 0x7fc8dc852700 [00000000/0000bea0/0x10200040] __udivsi3
----------------
IN: __aeabi_uidivmod
0x0000bf04:  e8bd4006  pop      {r1, r2, lr}
0x0000bf08:  e0030092  mul      r3, r2, r0
0x0000bf0c:  e0411003  sub      r1, r1, r3
0x0000bf10:  e12fff1e  bx       lr

Trace 0: 0x7fc8dc852840 [00000000/0000bf04/0x10200040] __aeabi_uidivmod
----------------
IN: virtio_mmio_write_one
0x00000b00:  e1a03001  mov      r3, r1
0x00000b04:  e14b30b6  strh     r3, [fp, #-6]
0x00000b08:  e51b302c  ldr      r3, [fp, #-0x2c]
0x00000b0c:  e50b300c  str      r3, [fp, #-0xc]
0x00000b10:  e3a03000  mov      r3, #0
0x00000b14:  e50b3010  str      r3, [fp, #-0x10]
0x00000b18:  e3a03000  mov      r3, #0
0x00000b1c:  e50b3014  str      r3, [fp, #-0x14]
0x00000b20:  ea00009b  b        #0xd94

Trace 0: 0x7fc8dc852a80 [00000000/00000b00/0x10200040] virtio_mmio_write_one
----------------
IN: virtio_mmio_write_one
0x00000d94:  e51b300c  ldr      r3, [fp, #-0xc]
0x00000d98:  e3530000  cmp      r3, #0
0x00000d9c:  1affff60  bne      #0xb24

Trace 0: 0x7fc8dc852d40 [00000000/00000d94/0x10200040] virtio_mmio_write_one
----------------
IN: virtio_mmio_write_one
0x00000b24:  e51b300c  ldr      r3, [fp, #-0xc]
0x00000b28:  e3530a01  cmp      r3, #0x1000
0x00000b2c:  9a000002  bls      #0xb3c

Trace 0: 0x7fc8dc852f00 [00000000/00000b24/0x10200040] virtio_mmio_write_one
----------------
IN: virtio_mmio_write_one
0x00000b3c:  e51b300c  ldr      r3, [fp, #-0xc]
0x00000b40:  e50b3018  str      r3, [fp, #-0x18]
0x00000b44:  e51b200c  ldr      r2, [fp, #-0xc]
0x00000b48:  e51b3018  ldr      r3, [fp, #-0x18]
0x00000b4c:  e0423003  sub      r3, r2, r3
0x00000b50:  e50b300c  str      r3, [fp, #-0xc]
0x00000b54:  e51b2028  ldr      r2, [fp, #-0x28]
0x00000b58:  e51b3010  ldr      r3, [fp, #-0x10]
0x00000b5c:  e0823003  add      r3, r2, r3
0x00000b60:  e1a00003  mov      r0, r3
0x00000b64:  e51b3024  ldr      r3, [fp, #-0x24]
0x00000b68:  e5932010  ldr      r2, [r3, #0x10]
0x00000b6c:  e15b30b6  ldrh     r3, [fp, #-6]
0x00000b70:  e1a03203  lsl      r3, r3, #4
0x00000b74:  e0821003  add      r1, r2, r3
0x00000b78:  e1a02000  mov      r2, r0
0x00000b7c:  e3a03000  mov      r3, #0
0x00000b80:  e20200ff  and      r0, r2, #0xff
0x00000b84:  e3a0c000  mov      ip, #0
0x00000b88:  e18c0000  orr      r0, ip, r0
0x00000b8c:  e5c10000  strb     r0, [r1]
0x00000b90:  e1a00422  lsr      r0, r2, #8
0x00000b94:  e20000ff  and      r0, r0, #0xff
0x00000b98:  e3a0c000  mov      ip, #0
0x00000b9c:  e18c0000  orr      r0, ip, r0
0x00000ba0:  e5c10001  strb     r0, [r1, #1]
0x00000ba4:  e1a00822  lsr      r0, r2, #0x10
0x00000ba8:  e20000ff  and      r0, r0, #0xff
0x00000bac:  e3a0c000  mov      ip, #0
0x00000bb0:  e18c0000  orr      r0, ip, r0
0x00000bb4:  e5c10002  strb     r0, [r1, #2]
0x00000bb8:  e1a00c22  lsr      r0, r2, #0x18
0x00000bbc:  e3a0c000  mov      ip, #0
0x00000bc0:  e18c0000  orr      r0, ip, r0
0x00000bc4:  e5c10003  strb     r0, [r1, #3]
0x00000bc8:  e20300ff  and      r0, r3, #0xff
0x00000bcc:  e3a0c000  mov      ip, #0
0x00000bd0:  e18c0000  orr      r0, ip, r0
0x00000bd4:  e5c10004  strb     r0, [r1, #4]
0x00000bd8:  e1a00423  lsr      r0, r3, #8
0x00000bdc:  e20000ff  and      r0, r0, #0xff
0x00000be0:  e3a0c000  mov      ip, #0
0x00000be4:  e18c0000  orr      r0, ip, r0
0x00000be8:  e5c10005  strb     r0, [r1, #5]
0x00000bec:  e1a00823  lsr      r0, r3, #0x10
0x00000bf0:  e20000ff  and      r0, r0, #0xff
0x00000bf4:  e3a0c000  mov      ip, #0
0x00000bf8:  e18c0000  orr      r0, ip, r0
0x00000bfc:  e5c10006  strb     r0, [r1, #6]

Linking TBs 0x7fc8dc852f00 [00000b24] index 0 -> 0x7fc8dc8530c0 [00000b3c]
Trace 0: 0x7fc8dc8530c0 [00000000/00000b3c/0x10200040] virtio_mmio_write_one
----------------
IN: virtio_mmio_write_one
0x00000c00:  e1a03c23  lsr      r3, r3, #0x18
0x00000c04:  e3a02000  mov      r2, #0
0x00000c08:  e1823003  orr      r3, r2, r3
0x00000c0c:  e5c13007  strb     r3, [r1, #7]
0x00000c10:  e51b3024  ldr      r3, [fp, #-0x24]
0x00000c14:  e5932010  ldr      r2, [r3, #0x10]
0x00000c18:  e15b30b6  ldrh     r3, [fp, #-6]
0x00000c1c:  e1a03203  lsl      r3, r3, #4
0x00000c20:  e0823003  add      r3, r2, r3
0x00000c24:  e55b2018  ldrb     r2, [fp, #-0x18]
0x00000c28:  e3a01000  mov      r1, #0
0x00000c2c:  e1812002  orr      r2, r1, r2
0x00000c30:  e5c32008  strb     r2, [r3, #8]
0x00000c34:  e55b2017  ldrb     r2, [fp, #-0x17]
0x00000c38:  e3a01000  mov      r1, #0
0x00000c3c:  e1812002  orr      r2, r1, r2
0x00000c40:  e5c32009  strb     r2, [r3, #9]
0x00000c44:  e55b2016  ldrb     r2, [fp, #-0x16]
0x00000c48:  e3a01000  mov      r1, #0
0x00000c4c:  e1812002  orr      r2, r1, r2
0x00000c50:  e5c3200a  strb     r2, [r3, #0xa]
0x00000c54:  e55b2015  ldrb     r2, [fp, #-0x15]
0x00000c58:  e3a01000  mov      r1, #0
0x00000c5c:  e1812002  orr      r2, r1, r2
0x00000c60:  e5c3200b  strb     r2, [r3, #0xb]
0x00000c64:  e51b300c  ldr      r3, [fp, #-0xc]
0x00000c68:  e3530000  cmp      r3, #0
0x00000c6c:  1a000012  bne      #0xcbc

Trace 0: 0x7fc8dc853840 [00000000/00000c00/0x10200040] virtio_mmio_write_one
----------------
IN: virtio_mmio_write_one
0x00000c70:  e51b3024  ldr      r3, [fp, #-0x24]
0x00000c74:  e5932010  ldr      r2, [r3, #0x10]
0x00000c78:  e15b30b6  ldrh     r3, [fp, #-6]
0x00000c7c:  e1a03203  lsl      r3, r3, #4
0x00000c80:  e0823003  add      r3, r2, r3
0x00000c84:  e3a02000  mov      r2, #0
0x00000c88:  e5c3200c  strb     r2, [r3, #0xc]
0x00000c8c:  e3a02000  mov      r2, #0
0x00000c90:  e5c3200d  strb     r2, [r3, #0xd]
0x00000c94:  e51b3024  ldr      r3, [fp, #-0x24]
0x00000c98:  e5932010  ldr      r2, [r3, #0x10]
0x00000c9c:  e15b30b6  ldrh     r3, [fp, #-6]
0x00000ca0:  e1a03203  lsl      r3, r3, #4
0x00000ca4:  e0823003  add      r3, r2, r3
0x00000ca8:  e3a02000  mov      r2, #0
0x00000cac:  e5c3200e  strb     r2, [r3, #0xe]
0x00000cb0:  e3a02000  mov      r2, #0
0x00000cb4:  e5c3200f  strb     r2, [r3, #0xf]
0x00000cb8:  ea000024  b        #0xd50

Linking TBs 0x7fc8dc853840 [00000c00] index 1 -> 0x7fc8dc853e40 [00000c70]
Trace 0: 0x7fc8dc853e40 [00000000/00000c70/0x10200040] virtio_mmio_write_one
----------------
IN: virtio_mmio_write_one
0x00000d50:  e15b30b6  ldrh     r3, [fp, #-6]
0x00000d54:  e2833001  add      r3, r3, #1
0x00000d58:  e1a02003  mov      r2, r3
0x00000d5c:  e51b3024  ldr      r3, [fp, #-0x24]
0x00000d60:  e5933000  ldr      r3, [r3]
0x00000d64:  e1a01003  mov      r1, r3
0x00000d68:  e1a00002  mov      r0, r2
0x00000d6c:  eb002c60  bl       #0xbef4

Linking TBs 0x7fc8dc853e40 [00000c70] index 0 -> 0x7fc8dc8542c0 [00000d50]
Trace 0: 0x7fc8dc8542c0 [00000000/00000d50/0x10200040] virtio_mmio_write_one
Chain 0: 0x7fc8dc851f40 [00000000/0000bef4/0x10200040] __aeabi_uidivmod
Chain 0: 0x7fc8dc852840 [00000000/0000bf04/0x10200040] __aeabi_uidivmod
----------------
IN: virtio_mmio_write_one
0x00000d70:  e1a03001  mov      r3, r1
0x00000d74:  e14b30b6  strh     r3, [fp, #-6]
0x00000d78:  e51b2010  ldr      r2, [fp, #-0x10]
0x00000d7c:  e51b3018  ldr      r3, [fp, #-0x18]
0x00000d80:  e0823003  add      r3, r2, r3
0x00000d84:  e50b3010  str      r3, [fp, #-0x10]
0x00000d88:  e51b3014  ldr      r3, [fp, #-0x14]
0x00000d8c:  e2833001  add      r3, r3, #1
0x00000d90:  e50b3014  str      r3, [fp, #-0x14]
0x00000d94:  e51b300c  ldr      r3, [fp, #-0xc]
0x00000d98:  e3530000  cmp      r3, #0
0x00000d9c:  1affff60  bne      #0xb24

Trace 0: 0x7fc8dc854500 [00000000/00000d70/0x10200040] virtio_mmio_write_one
----------------
IN: virtio_mmio_write_one
0x00000da0:  e51b3024  ldr      r3, [fp, #-0x24]
0x00000da4:  e5932014  ldr      r2, [r3, #0x14]
0x00000da8:  e15b30b6  ldrh     r3, [fp, #-6]
0x00000dac:  e1a03083  lsl      r3, r3, #1
0x00000db0:  e0823003  add      r3, r2, r3
0x00000db4:  e55b2006  ldrb     r2, [fp, #-6]
0x00000db8:  e3a01000  mov      r1, #0
0x00000dbc:  e1812002  orr      r2, r1, r2
0x00000dc0:  e5c32004  strb     r2, [r3, #4]
0x00000dc4:  e55b2005  ldrb     r2, [fp, #-5]
0x00000dc8:  e3a01000  mov      r1, #0
0x00000dcc:  e1812002  orr      r2, r1, r2
0x00000dd0:  e5c32005  strb     r2, [r3, #5]
0x00000dd4:  e51b3024  ldr      r3, [fp, #-0x24]
0x00000dd8:  e5933014  ldr      r3, [r3, #0x14]
0x00000ddc:  e5d32002  ldrb     r2, [r3, #2]
0x00000de0:  e20220ff  and      r2, r2, #0xff
0x00000de4:  e5d33003  ldrb     r3, [r3, #3]
0x00000de8:  e20330ff  and      r3, r3, #0xff
0x00000dec:  e1a03403  lsl      r3, r3, #8
0x00000df0:  e1833002  orr      r3, r3, r2
0x00000df4:  e1a03803  lsl      r3, r3, #0x10
0x00000df8:  e1a01823  lsr      r1, r3, #0x10
0x00000dfc:  e51b3014  ldr      r3, [fp, #-0x14]
0x00000e00:  e1a03803  lsl      r3, r3, #0x10
0x00000e04:  e1a02823  lsr      r2, r3, #0x10
0x00000e08:  e51b3024  ldr      r3, [fp, #-0x24]
0x00000e0c:  e5933014  ldr      r3, [r3, #0x14]
0x00000e10:  e0812002  add      r2, r1, r2
0x00000e14:  e1a02802  lsl      r2, r2, #0x10
0x00000e18:  e1a02822  lsr      r2, r2, #0x10
0x00000e1c:  e20210ff  and      r1, r2, #0xff
0x00000e20:  e5d30002  ldrb     r0, [r3, #2]
0x00000e24:  e3a00000  mov      r0, #0
0x00000e28:  e1801001  orr      r1, r0, r1
0x00000e2c:  e5c31002  strb     r1, [r3, #2]
0x00000e30:  e1a02422  lsr      r2, r2, #8
0x00000e34:  e1a02802  lsl      r2, r2, #0x10
0x00000e38:  e1a02822  lsr      r2, r2, #0x10
0x00000e3c:  e5d31003  ldrb     r1, [r3, #3]
0x00000e40:  e3a01000  mov      r1, #0
0x00000e44:  e1812002  orr      r2, r1, r2
0x00000e48:  e5c32003  strb     r2, [r3, #3]
0x00000e4c:  e51b3020  ldr      r3, [fp, #-0x20]
0x00000e50:  e2832050  add      r2, r3, #0x50
0x00000e54:  e51b3024  ldr      r3, [fp, #-0x24]
0x00000e58:  e5933004  ldr      r3, [r3, #4]
0x00000e5c:  e1a01003  mov      r1, r3
0x00000e60:  e1a00002  mov      r0, r2
0x00000e64:  ebfffe2c  bl       #0x71c

Linking TBs 0x7fc8dc854500 [00000d70] index 1 -> 0x7fc8dc8548c0 [00000da0]
Trace 0: 0x7fc8dc8548c0 [00000000/00000da0/0x10200040] virtio_mmio_write_one
Chain 0: 0x7fc8dc84ac80 [00000000/0000071c/0x10200040] volatile_write32
----------------
IN: virtio_mmio_write_one
0x00000e68:  e59f001c  ldr      r0, [pc, #0x1c]
0x00000e6c:  eb00039e  bl       #0x1cec

Trace 0: 0x7fc8dc855180 [00000000/00000e68/0x10200040] virtio_mmio_write_one
Chain 0: 0x7fc8dc822380 [00000000/00001cec/0x10200040] puts
Chain 0: 0x7fc8dc822780 [00000000/00001c58/0x10200040] _puts_r
Chain 0: 0x7fc8dc822f80 [00000000/00006330/0x10200040] __sfvwrite_r
Chain 0: 0x7fc8dc82dd00 [00000000/00006424/0x10200040] __sfvwrite_r
Chain 0: 0x7fc8dc82e440 [00000000/00007280/0x10200040] memchr
Chain 0: 0x7fc8dc82f580 [00000000/00006694/0x10200040] __sfvwrite_r
Chain 0: 0x7fc8dc82ff00 [00000000/000074ac/0x10200040] memmove
Chain 0: 0x7fc8dc831580 [00000000/00006784/0x10200040] __sfvwrite_r
Chain 0: 0x7fc8dc82e440 [00000000/00007280/0x10200040] memchr
Chain 0: 0x7fc8dc82f580 [00000000/00006694/0x10200040] __sfvwrite_r
Chain 0: 0x7fc8dc82ff00 [00000000/000074ac/0x10200040] memmove
Chain 0: 0x7fc8dc831580 [00000000/00006784/0x10200040] __sfvwrite_r
Chain 0: 0x7fc8dc832940 [00000000/00005b7c/0x10200040] _fflush_r
Chain 0: 0x7fc8dc833b40 [00000000/000089f4/0x10200040] __swrite
Chain 0: 0x7fc8dc834140 [00000000/00009e70/0x10200040] _write_r
Chain 0: 0x7fc8dc834480 [00000000/0000b018/0x10200040] _write
Chain 0: 0x7fc8dc816380 [00000000/0000ad4c/0x10200040] findslot
Chain 0: 0x7fc8dc834740 [00000000/0000b02c/0x10200040] _write
Trace 0: 0x7fc8dc834b40 [00000000/0000b054/0x10200040] _write
Chain 0: 0x7fc8dc835340 [00000000/00009e98/0x10200040] _write_r
Chain 0: 0x7fc8dc835740 [00000000/00008a30/0x10200040] __swrite
Chain 0: 0x7fc8dc835a40 [00000000/00005ac8/0x10200040] __sflush_r
Chain 0: 0x7fc8dc836080 [00000000/00006764/0x10200040] __sfvwrite_r
Chain 0: 0x7fc8dc836600 [00000000/00001cc4/0x10200040] _puts_r
----------------
IN: virtio_mmio_write_one
0x00000e70:  e59f0018  ldr      r0, [pc, #0x18]
0x00000e74:  eb000361  bl       #0x1c00

Trace 0: 0x7fc8dc855300 [00000000/00000e70/0x10200040] virtio_mmio_write_one
Chain 0: 0x7fc8dc837c40 [00000000/00001c00/0x10200040] printf
Chain 0: 0x7fc8dc838580 [00000000/00006914/0x10200040] _localeconv_r
Chain 0: 0x7fc8dc838700 [00000000/00001d80/0x10200040] _vfprintf_r
Chain 0: 0x7fc8dc8388c0 [00000000/00001d90/0x10200040] _vfprintf_r
Chain 0: 0x7fc8dc842000 [00000000/000020d4/0x10200040] _vfprintf_r
Chain 0: 0x7fc8dc83f8c0 [00000000/00008b44/0x10200040] __sprint_r
Chain 0: 0x7fc8dc822f80 [00000000/00006330/0x10200040] __sfvwrite_r
Chain 0: 0x7fc8dc82dd00 [00000000/00006424/0x10200040] __sfvwrite_r
Chain 0: 0x7fc8dc82e440 [00000000/00007280/0x10200040] memchr
Chain 0: 0x7fc8dc82f580 [00000000/00006694/0x10200040] __sfvwrite_r
Chain 0: 0x7fc8dc82ff00 [00000000/000074ac/0x10200040] memmove
Linking TBs 0x7fc8dc850800 [00007540] index 0 -> 0x7fc8dc850800 [00007540]
Trace 0: 0x7fc8dc850800 [00000000/00007540/0x10200040] memmove
Chain 0: 0x7fc8dc831580 [00000000/00006784/0x10200040] __sfvwrite_r
Chain 0: 0x7fc8dc840b80 [00000000/00008b40/0x10200040] __sprint_r.part.0
Chain 0: 0x7fc8dc842280 [00000000/000020ec/0x10200040] _vfprintf_r
Chain 0: 0x7fc8dc842900 [00000000/00001c2c/0x10200040] printf
----------------
IN: virtio_mmio_write_one
0x00000e78:  e51b302c  ldr      r3, [fp, #-0x2c]
0x00000e7c:  e1a00003  mov      r0, r3
0x00000e80:  e24bd004  sub      sp, fp, #4
0x00000e84:  e8bd4800  pop      {fp, lr}
0x00000e88:  e12fff1e  bx       lr

Trace 0: 0x7fc8dc855480 [00000000/00000e78/0x10200040] virtio_mmio_write_one
----------------
IN: virtio_serial_init
0x00000604:  e59f0038  ldr      r0, [pc, #0x38]
0x00000608:  eb0005b7  bl       #0x1cec

Trace 0: 0x7fc8dc8556c0 [00000000/00000604/0x10200040] virtio_serial_init
Chain 0: 0x7fc8dc822380 [00000000/00001cec/0x10200040] puts
Chain 0: 0x7fc8dc822780 [00000000/00001c58/0x10200040] _puts_r
Chain 0: 0x7fc8dc822f80 [00000000/00006330/0x10200040] __sfvwrite_r
Chain 0: 0x7fc8dc82dd00 [00000000/00006424/0x10200040] __sfvwrite_r
Chain 0: 0x7fc8dc82e440 [00000000/00007280/0x10200040] memchr
Chain 0: 0x7fc8dc82f580 [00000000/00006694/0x10200040] __sfvwrite_r
Chain 0: 0x7fc8dc82ff00 [00000000/000074ac/0x10200040] memmove
Chain 0: 0x7fc8dc831580 [00000000/00006784/0x10200040] __sfvwrite_r
Chain 0: 0x7fc8dc82e440 [00000000/00007280/0x10200040] memchr
Chain 0: 0x7fc8dc82f580 [00000000/00006694/0x10200040] __sfvwrite_r
Chain 0: 0x7fc8dc82ff00 [00000000/000074ac/0x10200040] memmove
Chain 0: 0x7fc8dc831580 [00000000/00006784/0x10200040] __sfvwrite_r
Chain 0: 0x7fc8dc832940 [00000000/00005b7c/0x10200040] _fflush_r
Chain 0: 0x7fc8dc833b40 [00000000/000089f4/0x10200040] __swrite
Chain 0: 0x7fc8dc834140 [00000000/00009e70/0x10200040] _write_r
Chain 0: 0x7fc8dc834480 [00000000/0000b018/0x10200040] _write
Chain 0: 0x7fc8dc816380 [00000000/0000ad4c/0x10200040] findslot
Chain 0: 0x7fc8dc834740 [00000000/0000b02c/0x10200040] _write
Trace 0: 0x7fc8dc834b40 [00000000/0000b054/0x10200040] _write
Chain 0: 0x7fc8dc835340 [00000000/00009e98/0x10200040] _write_r
Chain 0: 0x7fc8dc835740 [00000000/00008a30/0x10200040] __swrite
Chain 0: 0x7fc8dc835a40 [00000000/00005ac8/0x10200040] __sflush_r
Chain 0: 0x7fc8dc836080 [00000000/00006764/0x10200040] __sfvwrite_r
Chain 0: 0x7fc8dc836600 [00000000/00001cc4/0x10200040] _puts_r
----------------
IN: virtio_serial_init
0x0000060c:  e3a03000  mov      r3, #0
0x00000610:  e1a00003  mov      r0, r3
0x00000614:  e24bd004  sub      sp, fp, #4
0x00000618:  e8bd4800  pop      {fp, lr}
0x0000061c:  e12fff1e  bx       lr

Trace 0: 0x7fc8dc855840 [00000000/0000060c/0x10200040] virtio_serial_init
----------------
IN: virtio_init
0x00001770:  ea000010  b        #0x17b8

Trace 0: 0x7fc8dc855a40 [00000000/00001770/0x10200040] virtio_init
Linking TBs 0x7fc8dc855a40 [00001770] index 0 -> 0x7fc8dc848d40 [000017b8]
Trace 0: 0x7fc8dc848d40 [00000000/000017b8/0x10200040] virtio_init
----------------
IN: main
0x00001958:  e59f304c  ldr      r3, [pc, #0x4c]
0x0000195c:  e24bc01c  sub      ip, fp, #0x1c
0x00001960:  e893000f  ldm      r3, {r0, r1, r2, r3}
0x00001964:  e8ac0007  stm      ip!, {r0, r1, r2}
0x00001968:  e1cc30b0  strh     r3, [ip]
0x0000196c:  e28cc002  add      ip, ip, #2
0x00001970:  e1a03823  lsr      r3, r3, #0x10
0x00001974:  e5cc3000  strb     r3, [ip]
0x00001978:  e24b301c  sub      r3, fp, #0x1c
0x0000197c:  e3a0100f  mov      r1, #0xf
0x00001980:  e1a00003  mov      r0, r3
0x00001984:  ebffff94  bl       #0x17dc

Trace 0: 0x7fc8dc855b40 [00000000/00001958/0x10200040] main
----------------
IN: write_to_serial
0x000017dc:  e92d4800  push     {fp, lr}
0x000017e0:  e28db004  add      fp, sp, #4
0x000017e4:  e24dd018  sub      sp, sp, #0x18
0x000017e8:  e50b0018  str      r0, [fp, #-0x18]
0x000017ec:  e50b101c  str      r1, [fp, #-0x1c]
0x000017f0:  e51b301c  ldr      r3, [fp, #-0x1c]
0x000017f4:  e50b3008  str      r3, [fp, #-8]
0x000017f8:  e3a03000  mov      r3, #0
0x000017fc:  e50b3014  str      r3, [fp, #-0x14]

Trace 0: 0x7fc8dc855fc0 [00000000/000017dc/0x10200040] write_to_serial
----------------
IN: write_to_serial
0x00001800:  e3a03000  mov      r3, #0
0x00001804:  e50b300c  str      r3, [fp, #-0xc]
0x00001808:  e51b3018  ldr      r3, [fp, #-0x18]
0x0000180c:  e50b3010  str      r3, [fp, #-0x10]
0x00001810:  ea000015  b        #0x186c

Trace 0: 0x7fc8dc856340 [00000000/00001800/0x10200040] write_to_serial
----------------
IN: write_to_serial
0x0000186c:  e51b3008  ldr      r3, [fp, #-8]
0x00001870:  e3530000  cmp      r3, #0
0x00001874:  1affffe6  bne      #0x1814

Linking TBs 0x7fc8dc856340 [00001800] index 0 -> 0x7fc8dc856540 [0000186c]
Trace 0: 0x7fc8dc856540 [00000000/0000186c/0x10200040] write_to_serial
----------------
IN: write_to_serial
0x00001814:  e51b3008  ldr      r3, [fp, #-8]
0x00001818:  e3530a01  cmp      r3, #0x1000
0x0000181c:  31a03003  movlo    r3, r3
0x00001820:  23a03a01  movhs    r3, #0x1000
0x00001824:  e50b3014  str      r3, [fp, #-0x14]
0x00001828:  e51b2014  ldr      r2, [fp, #-0x14]
0x0000182c:  e51b1010  ldr      r1, [fp, #-0x10]
0x00001830:  e59f007c  ldr      r0, [pc, #0x7c]
0x00001834:  ebfffb83  bl       #0x648

Linking TBs 0x7fc8dc856540 [0000186c] index 0 -> 0x7fc8dc856700 [00001814]
Trace 0: 0x7fc8dc856700 [00000000/00001814/0x10200040] write_to_serial
----------------
IN: virtio_serial_write
0x00000648:  e92d4800  push     {fp, lr}
0x0000064c:  e28db004  add      fp, sp, #4
0x00000650:  e24dd010  sub      sp, sp, #0x10
0x00000654:  e50b0008  str      r0, [fp, #-8]
0x00000658:  e50b100c  str      r1, [fp, #-0xc]
0x0000065c:  e50b2010  str      r2, [fp, #-0x10]
0x00000660:  e59f0038  ldr      r0, [pc, #0x38]
0x00000664:  eb0005a0  bl       #0x1cec

Trace 0: 0x7fc8dc856a40 [00000000/00000648/0x10200040] virtio_serial_write
Chain 0: 0x7fc8dc822380 [00000000/00001cec/0x10200040] puts
Chain 0: 0x7fc8dc822780 [00000000/00001c58/0x10200040] _puts_r
Chain 0: 0x7fc8dc822f80 [00000000/00006330/0x10200040] __sfvwrite_r
Chain 0: 0x7fc8dc82dd00 [00000000/00006424/0x10200040] __sfvwrite_r
Chain 0: 0x7fc8dc82e440 [00000000/00007280/0x10200040] memchr
Chain 0: 0x7fc8dc82f580 [00000000/00006694/0x10200040] __sfvwrite_r
Chain 0: 0x7fc8dc82ff00 [00000000/000074ac/0x10200040] memmove
Chain 0: 0x7fc8dc831580 [00000000/00006784/0x10200040] __sfvwrite_r
Chain 0: 0x7fc8dc82e440 [00000000/00007280/0x10200040] memchr
Chain 0: 0x7fc8dc82f580 [00000000/00006694/0x10200040] __sfvwrite_r
Chain 0: 0x7fc8dc82ff00 [00000000/000074ac/0x10200040] memmove
Chain 0: 0x7fc8dc831580 [00000000/00006784/0x10200040] __sfvwrite_r
Chain 0: 0x7fc8dc832940 [00000000/00005b7c/0x10200040] _fflush_r
Chain 0: 0x7fc8dc833b40 [00000000/000089f4/0x10200040] __swrite
Chain 0: 0x7fc8dc834140 [00000000/00009e70/0x10200040] _write_r
Chain 0: 0x7fc8dc834480 [00000000/0000b018/0x10200040] _write
Chain 0: 0x7fc8dc816380 [00000000/0000ad4c/0x10200040] findslot
Chain 0: 0x7fc8dc834740 [00000000/0000b02c/0x10200040] _write
Trace 0: 0x7fc8dc834b40 [00000000/0000b054/0x10200040] _write
Chain 0: 0x7fc8dc835340 [00000000/00009e98/0x10200040] _write_r
Chain 0: 0x7fc8dc835740 [00000000/00008a30/0x10200040] __swrite
Chain 0: 0x7fc8dc835a40 [00000000/00005ac8/0x10200040] __sflush_r
Chain 0: 0x7fc8dc836080 [00000000/00006764/0x10200040] __sfvwrite_r
Chain 0: 0x7fc8dc836600 [00000000/00001cc4/0x10200040] _puts_r
----------------
IN: virtio_serial_write
0x00000668:  e51b3008  ldr      r3, [fp, #-8]
0x0000066c:  e2830b6e  add      r0, r3, #0x1b800
0x00000670:  e280000c  add      r0, r0, #0xc
0x00000674:  e51b3008  ldr      r3, [fp, #-8]
0x00000678:  e2831b6e  add      r1, r3, #0x1b800
0x0000067c:  e2811040  add      r1, r1, #0x40
0x00000680:  e51b3010  ldr      r3, [fp, #-0x10]
0x00000684:  e51b200c  ldr      r2, [fp, #-0xc]
0x00000688:  eb000105  bl       #0xaa4

Trace 0: 0x7fc8dc856d80 [00000000/00000668/0x10200040] virtio_serial_write
Chain 0: 0x7fc8dc851a00 [00000000/00000aa4/0x10200040] virtio_mmio_write_one
Chain 0: 0x7fc8dc851f40 [00000000/0000bef4/0x10200040] __aeabi_uidivmod
Chain 0: 0x7fc8dc852840 [00000000/0000bf04/0x10200040] __aeabi_uidivmod
Chain 0: 0x7fc8dc852a80 [00000000/00000b00/0x10200040] virtio_mmio_write_one
Chain 0: 0x7fc8dc852d40 [00000000/00000d94/0x10200040] virtio_mmio_write_one
Chain 0: 0x7fc8dc852f00 [00000000/00000b24/0x10200040] virtio_mmio_write_one
Chain 0: 0x7fc8dc853840 [00000000/00000c00/0x10200040] virtio_mmio_write_one
Chain 0: 0x7fc8dc851f40 [00000000/0000bef4/0x10200040] __aeabi_uidivmod
Chain 0: 0x7fc8dc852840 [00000000/0000bf04/0x10200040] __aeabi_uidivmod
Chain 0: 0x7fc8dc854500 [00000000/00000d70/0x10200040] virtio_mmio_write_one
Chain 0: 0x7fc8dc84ac80 [00000000/0000071c/0x10200040] volatile_write32
Chain 0: 0x7fc8dc855180 [00000000/00000e68/0x10200040] virtio_mmio_write_one
Chain 0: 0x7fc8dc822380 [00000000/00001cec/0x10200040] puts
Chain 0: 0x7fc8dc822780 [00000000/00001c58/0x10200040] _puts_r
Chain 0: 0x7fc8dc822f80 [00000000/00006330/0x10200040] __sfvwrite_r
Chain 0: 0x7fc8dc82dd00 [00000000/00006424/0x10200040] __sfvwrite_r
Chain 0: 0x7fc8dc82e440 [00000000/00007280/0x10200040] memchr
Chain 0: 0x7fc8dc82f580 [00000000/00006694/0x10200040] __sfvwrite_r
Chain 0: 0x7fc8dc82ff00 [00000000/000074ac/0x10200040] memmove
Chain 0: 0x7fc8dc831580 [00000000/00006784/0x10200040] __sfvwrite_r
Chain 0: 0x7fc8dc82e440 [00000000/00007280/0x10200040] memchr
Chain 0: 0x7fc8dc82f580 [00000000/00006694/0x10200040] __sfvwrite_r
Chain 0: 0x7fc8dc82ff00 [00000000/000074ac/0x10200040] memmove
Chain 0: 0x7fc8dc831580 [00000000/00006784/0x10200040] __sfvwrite_r
Chain 0: 0x7fc8dc832940 [00000000/00005b7c/0x10200040] _fflush_r
Chain 0: 0x7fc8dc833b40 [00000000/000089f4/0x10200040] __swrite
Chain 0: 0x7fc8dc834140 [00000000/00009e70/0x10200040] _write_r
Chain 0: 0x7fc8dc834480 [00000000/0000b018/0x10200040] _write
Chain 0: 0x7fc8dc816380 [00000000/0000ad4c/0x10200040] findslot
Chain 0: 0x7fc8dc834740 [00000000/0000b02c/0x10200040] _write
Trace 0: 0x7fc8dc834b40 [00000000/0000b054/0x10200040] _write
Chain 0: 0x7fc8dc835340 [00000000/00009e98/0x10200040] _write_r
Chain 0: 0x7fc8dc835740 [00000000/00008a30/0x10200040] __swrite
Chain 0: 0x7fc8dc835a40 [00000000/00005ac8/0x10200040] __sflush_r
Chain 0: 0x7fc8dc836080 [00000000/00006764/0x10200040] __sfvwrite_r
Chain 0: 0x7fc8dc836600 [00000000/00001cc4/0x10200040] _puts_r
Chain 0: 0x7fc8dc855300 [00000000/00000e70/0x10200040] virtio_mmio_write_one
Chain 0: 0x7fc8dc837c40 [00000000/00001c00/0x10200040] printf
Chain 0: 0x7fc8dc838580 [00000000/00006914/0x10200040] _localeconv_r
Chain 0: 0x7fc8dc838700 [00000000/00001d80/0x10200040] _vfprintf_r
Chain 0: 0x7fc8dc8388c0 [00000000/00001d90/0x10200040] _vfprintf_r
Chain 0: 0x7fc8dc842000 [00000000/000020d4/0x10200040] _vfprintf_r
Chain 0: 0x7fc8dc83f8c0 [00000000/00008b44/0x10200040] __sprint_r
Chain 0: 0x7fc8dc822f80 [00000000/00006330/0x10200040] __sfvwrite_r
Chain 0: 0x7fc8dc82dd00 [00000000/00006424/0x10200040] __sfvwrite_r
Chain 0: 0x7fc8dc82e440 [00000000/00007280/0x10200040] memchr
Chain 0: 0x7fc8dc82f580 [00000000/00006694/0x10200040] __sfvwrite_r
Chain 0: 0x7fc8dc82ff00 [00000000/000074ac/0x10200040] memmove
Chain 0: 0x7fc8dc831580 [00000000/00006784/0x10200040] __sfvwrite_r
Chain 0: 0x7fc8dc840b80 [00000000/00008b40/0x10200040] __sprint_r.part.0
Chain 0: 0x7fc8dc842280 [00000000/000020ec/0x10200040] _vfprintf_r
Chain 0: 0x7fc8dc842900 [00000000/00001c2c/0x10200040] printf
Chain 0: 0x7fc8dc855480 [00000000/00000e78/0x10200040] virtio_mmio_write_one
----------------
IN: virtio_serial_write
0x0000068c:  e1a03000  mov      r3, r0
0x00000690:  e1a00003  mov      r0, r3
0x00000694:  e24bd004  sub      sp, fp, #4
0x00000698:  e8bd4800  pop      {fp, lr}
0x0000069c:  e12fff1e  bx       lr

Trace 0: 0x7fc8dc857040 [00000000/0000068c/0x10200040] virtio_serial_write
----------------
IN: write_to_serial
0x00001838:  e1a03000  mov      r3, r0
0x0000183c:  e1a02003  mov      r2, r3
0x00001840:  e51b300c  ldr      r3, [fp, #-0xc]
0x00001844:  e0833002  add      r3, r3, r2
0x00001848:  e50b300c  str      r3, [fp, #-0xc]
0x0000184c:  e51b2008  ldr      r2, [fp, #-8]
0x00001850:  e51b3014  ldr      r3, [fp, #-0x14]
0x00001854:  e0423003  sub      r3, r2, r3
0x00001858:  e50b3008  str      r3, [fp, #-8]
0x0000185c:  e51b2010  ldr      r2, [fp, #-0x10]
0x00001860:  e51b3014  ldr      r3, [fp, #-0x14]
0x00001864:  e0823003  add      r3, r2, r3
0x00001868:  e50b3010  str      r3, [fp, #-0x10]
0x0000186c:  e51b3008  ldr      r3, [fp, #-8]
0x00001870:  e3530000  cmp      r3, #0
0x00001874:  1affffe6  bne      #0x1814

Trace 0: 0x7fc8dc857240 [00000000/00001838/0x10200040] write_to_serial
----------------
IN: write_to_serial
0x00001878:  e51b200c  ldr      r2, [fp, #-0xc]
0x0000187c:  e51b301c  ldr      r3, [fp, #-0x1c]
0x00001880:  e1520003  cmp      r2, r3
0x00001884:  1a000001  bne      #0x1890

Linking TBs 0x7fc8dc857240 [00001838] index 1 -> 0x7fc8dc8576c0 [00001878]
Trace 0: 0x7fc8dc8576c0 [00000000/00001878/0x10200040] write_to_serial
----------------
IN: write_to_serial
0x00001888:  e3a03000  mov      r3, #0
0x0000188c:  ea000004  b        #0x18a4

Linking TBs 0x7fc8dc8576c0 [00001878] index 1 -> 0x7fc8dc857900 [00001888]
Trace 0: 0x7fc8dc857900 [00000000/00001888/0x10200040] write_to_serial
----------------
IN: write_to_serial
0x000018a4:  e1a00003  mov      r0, r3
0x000018a8:  e24bd004  sub      sp, fp, #4
0x000018ac:  e8bd4800  pop      {fp, lr}
0x000018b0:  e12fff1e  bx       lr

Linking TBs 0x7fc8dc857900 [00001888] index 0 -> 0x7fc8dc857a00 [000018a4]
Trace 0: 0x7fc8dc857a00 [00000000/000018a4/0x10200040] write_to_serial
----------------
IN: main
0x00001988:  e3a03000  mov      r3, #0
0x0000198c:  e1a00003  mov      r0, r3
0x00001990:  e24bd004  sub      sp, fp, #4
0x00001994:  e8bd4800  pop      {fp, lr}
0x00001998:  e12fff1e  bx       lr

Trace 0: 0x7fc8dc857c00 [00000000/00001988/0x10200040] main
----------------
IN: frame_dummy
0x000002b4:  eb0005bd  bl       #0x19b0

Trace 0: 0x7fc8dc857e00 [00000000/000002b4/0x10200040] frame_dummy
----------------
IN: exit
0x000019b0:  e52db004  str      fp, [sp, #-4]!
0x000019b4:  e28db000  add      fp, sp, #0
0x000019b8:  e24dd00c  sub      sp, sp, #0xc
0x000019bc:  e50b0008  str      r0, [fp, #-8]
0x000019c0:  eafffffe  b        #0x19c0

Trace 0: 0x7fc8dc857f00 [00000000/000019b0/0x10200040] exit
----------------
IN: exit
0x000019c0:  eafffffe  b        #0x19c0

Linking TBs 0x7fc8dc857f00 [000019b0] index 0 -> 0x7fc8dc8580c0 [000019c0]
Trace 0: 0x7fc8dc8580c0 [00000000/000019c0/0x10200040] exit
Linking TBs 0x7fc8dc8580c0 [000019c0] index 0 -> 0x7fc8dc8580c0 [000019c0]
Trace 0: 0x7fc8dc8580c0 [00000000/000019c0/0x10200040] exit
Stopped execution of TB chain before 0x7fc8dc8580c0 [000019c0] exit
